 main

 Timestamp is 3ecf44bd (Sat May 24 04:09:01 2003)

 Preferred load address is 00400000

 Start         Length     Name                   Class
 0001:00000000 0002bfeaH .text                   CODE
 0001:0002bff0 00000863H .text$x                 CODE
 0001:0002c860 00000394H .text$yc                CODE
 0001:0002cc00 00000221H .text$yd                CODE
 0002:00000000 000001e8H .idata$5                DATA
 0002:000001e8 00000004H .CRT$XCA                DATA
 0002:000001ec 0000000cH .CRT$XCC                DATA
 0002:000001f8 0000001cH .CRT$XCL                DATA
 0002:00000214 00000080H .CRT$XCU                DATA
 0002:00000294 00000004H .CRT$XCZ                DATA
 0002:00000298 00000004H .CRT$XIA                DATA
 0002:0000029c 00000010H .CRT$XIC                DATA
 0002:000002ac 00000004H .CRT$XIY                DATA
 0002:000002b0 00000004H .CRT$XIZ                DATA
 0002:000002b4 00000004H .CRT$XPA                DATA
 0002:000002b8 00000008H .CRT$XPX                DATA
 0002:000002c0 00000004H .CRT$XPXA               DATA
 0002:000002c4 00000004H .CRT$XPZ                DATA
 0002:000002c8 00000004H .CRT$XTA                DATA
 0002:000002cc 00000004H .CRT$XTZ                DATA
 0002:000002d0 0000b160H .rdata                  DATA
 0002:0000b430 00000051H .rdata$debug            DATA
 0002:0000b484 00000470H .rdata$r                DATA
 0002:0000b900 000000a8H .rdata$sxdata           DATA
 0002:0000b9a8 00000004H .rtc$IAA                DATA
 0002:0000b9ac 00000004H .rtc$IZZ                DATA
 0002:0000b9b0 00000004H .rtc$TAA                DATA
 0002:0000b9b4 00000004H .rtc$TZZ                DATA
 0002:0000b9b8 000010ccH .xdata$x                DATA
 0002:0000ca84 00000050H .idata$2                DATA
 0002:0000cad4 00000014H .idata$3                DATA
 0002:0000cae8 000001e8H .idata$4                DATA
 0002:0000ccd0 000008d0H .idata$6                DATA
 0002:0000d5a0 00000000H .edata                  DATA
 0003:00000000 000013c0H .data                   DATA
 0003:000013c0 000021dcH .bss                    DATA

  Address         Publics by Value              Rva+Base       Lib:Object

 0000:00000000       __except_list              00000000     <absolute>
 0000:0000002a       ___safe_se_handler_count   0000002a     <absolute>
 0000:00000000       ___ImageBase               00400000     <linker-defined>
 0001:00000020       ?loading@@YA_NXZ           00401020 f   main.obj
 0001:000008b0       ?menu_input@@YAXTSDL_Event@@@Z 004018b0 f   main.obj
 0001:000009e0       ?menu_draw@@YAXXZ          004019e0 f   main.obj
 0001:00000a00       ?menu_debug@@YAXXZ         00401a00 f   main.obj
 0001:00000a10       ?level_1_input@@YAXTSDL_Event@@@Z 00401a10 f   main.obj
 0001:00000a90       ?level_1_draw@@YAXXZ       00401a90 f   main.obj
 0001:00000ab0       ?level_1_debug@@YAXXZ      00401ab0 f   main.obj
 0001:00000ac0       ?level_2_input@@YAXTSDL_Event@@@Z 00401ac0 f   main.obj
 0001:00001250       ?level_2_draw@@YAXXZ       00402250 f   main.obj
 0001:000013f0       ?level_2_debug@@YAXXZ      004023f0 f   main.obj
 0001:00001400       ?loadMedia@@YA_NXZ         00402400 f   main.obj
 0001:00001420       ?animation@@YAXQAVLTexture@@HHHHH@Z 00402420 f   main.obj
 0001:000014c0       ?Cursor@@YAXXZ             004024c0 f   main.obj
 0001:00001560       _main                      00402560 f   main.obj
 0001:00001980       ?Close@@YAXXZ              00402980 f   main.obj
 0001:00001a90       ??_D?$basic_ofstream@DU?$char_traits@D@std@@@std@@QAEXXZ 00402a90 f i main.obj
 0001:00001ac0       ??0?$basic_string@DU?$char_traits@D@std@@V?$allocator@D@2@@std@@QAE@PBD@Z 00402ac0 f i main.obj
 0001:00001b40       ??1?$basic_ios@DU?$char_traits@D@std@@@std@@UAE@XZ 00402b40 f i main.obj
 0001:00001b60       ??1ios_base@std@@UAE@XZ    00402b60 f i main.obj
 0001:00001b80       ??_Gios_base@std@@UAEPAXI@Z 00402b80 f i main.obj
 0001:00001b80       ??_Eios_base@std@@UAEPAXI@Z 00402b80 f i main.obj
 0001:00001bb0       ??0?$basic_ofstream@DU?$char_traits@D@std@@@std@@QAE@XZ 00402bb0 f i main.obj
 0001:00001c60       ??1?$basic_ostream@DU?$char_traits@D@std@@@std@@UAE@XZ 00402c60 f i main.obj
 0001:00001c80       ??1?$basic_ofstream@DU?$char_traits@D@std@@@std@@UAE@XZ 00402c80 f i main.obj
 0001:00001cf0       ??1?$basic_filebuf@DU?$char_traits@D@std@@@std@@UAE@XZ 00402cf0 f i main.obj
 0001:00001d70       ??1?$basic_streambuf@DU?$char_traits@D@std@@@std@@UAE@XZ 00402d70 f i main.obj
 0001:00001de0       ?_Lock@?$basic_streambuf@DU?$char_traits@D@std@@@std@@UAEXXZ 00402de0 f i main.obj
 0001:00001e00       ?_Unlock@?$basic_streambuf@DU?$char_traits@D@std@@@std@@UAEXXZ 00402e00 f i main.obj
 0001:00001e20       ?eof@?$char_traits@D@std@@SAHXZ 00402e20 f i main.obj
 0001:00001e30       ?pbackfail@?$basic_streambuf@DU?$char_traits@D@std@@@std@@MAEHH@Z 00402e30 f i main.obj
 0001:00001e30       ?overflow@?$basic_streambuf@DU?$char_traits@D@std@@@std@@MAEHH@Z 00402e30 f i main.obj
 0001:00001e50       ?showmanyc@?$basic_streambuf@DU?$char_traits@D@std@@@std@@MAE_JXZ 00402e50 f i main.obj
 0001:00001e60       ?underflow@?$basic_streambuf@DU?$char_traits@D@std@@@std@@MAEHXZ 00402e60 f i main.obj
 0001:00001e70       ?uflow@?$basic_streambuf@DU?$char_traits@D@std@@@std@@MAEHXZ 00402e70 f i main.obj
 0001:00001ed0       ?to_int_type@?$char_traits@D@std@@SAHABD@Z 00402ed0 f i main.obj
 0001:00001ee0       ?eq_int_type@?$char_traits@D@std@@SA_NABH0@Z 00402ee0 f i main.obj
 0001:00001f00       ?xsgetn@?$basic_streambuf@DU?$char_traits@D@std@@@std@@MAE_JPAD_J@Z 00402f00 f i main.obj
 0001:00002040       ?copy@?$char_traits@D@std@@SAPADPADPBDI@Z 00403040 f i main.obj
 0001:00002060       ?to_char_type@?$char_traits@D@std@@SADABH@Z 00403060 f i main.obj
 0001:00002070       ?xsputn@?$basic_streambuf@DU?$char_traits@D@std@@@std@@MAE_JPBD_J@Z 00403070 f i main.obj
 0001:000021b0       ?seekoff@?$basic_streambuf@DU?$char_traits@D@std@@@std@@MAE?AV?$fpos@H@2@_JHH@Z 004031b0 f i main.obj
 0001:000021e0       ?seekpos@?$basic_streambuf@DU?$char_traits@D@std@@@std@@MAE?AV?$fpos@H@2@V32@H@Z 004031e0 f i main.obj
 0001:00002210       ?setbuf@?$basic_streambuf@DU?$char_traits@D@std@@@std@@MAEPAV12@PAD_J@Z 00403210 f i main.obj
 0001:00002220       ?sync@?$basic_streambuf@DU?$char_traits@D@std@@@std@@MAEHXZ 00403220 f i main.obj
 0001:00002230       ?_Init@?$codecvt@DDH@std@@IAEXABV_Locinfo@2@@Z 00403230 f i main.obj
 0001:00002230       ?imbue@?$basic_streambuf@DU?$char_traits@D@std@@@std@@MAEXABVlocale@2@@Z 00403230 f i main.obj
 0001:00002240       ?_Lock@?$basic_filebuf@DU?$char_traits@D@std@@@std@@UAEXXZ 00403240 f i main.obj
 0001:00002270       ?_Unlock@?$basic_filebuf@DU?$char_traits@D@std@@@std@@UAEXXZ 00403270 f i main.obj
 0001:000022a0       ?overflow@?$basic_filebuf@DU?$char_traits@D@std@@@std@@MAEHH@Z 004032a0 f i main.obj
 0001:00002720       ?not_eof@?$char_traits@D@std@@SAHABH@Z 00403720 f i main.obj
 0001:00002750       ??$_Fputc@D@std@@YA_NDPAU_iobuf@@@Z 00403750 f i main.obj
 0001:00002770       ??1?$basic_string@DU?$char_traits@D@std@@V?$allocator@D@2@@std@@QAE@XZ 00403770 f i main.obj
 0001:000027d0       ?size@?$basic_string@DU?$char_traits@D@std@@V?$allocator@D@2@@std@@QBEIXZ 004037d0 f i main.obj
 0001:000027f0       ?pbackfail@?$basic_filebuf@DU?$char_traits@D@std@@@std@@MAEHH@Z 004037f0 f i main.obj
 0001:00002940       ??$_Ungetc@D@std@@YA_NABDPAU_iobuf@@@Z 00403940 f i main.obj
 0001:00002970       ?underflow@?$basic_filebuf@DU?$char_traits@D@std@@@std@@MAEHXZ 00403970 f i main.obj
 0001:00002a00       ?uflow@?$basic_filebuf@DU?$char_traits@D@std@@@std@@MAEHXZ 00403a00 f i main.obj
 0001:00002e10       ??$_Fgetc@D@std@@YA_NAADPAU_iobuf@@@Z 00403e10 f i main.obj
 0001:00002e40       ??0?$basic_string@DU?$char_traits@D@std@@V?$allocator@D@2@@std@@QAE@XZ 00403e40 f i main.obj
 0001:00002eb0       ?seekoff@?$basic_filebuf@DU?$char_traits@D@std@@@std@@MAE?AV?$fpos@H@2@_JHH@Z 00403eb0 f i main.obj
 0001:00002f90       ?seekpos@?$basic_filebuf@DU?$char_traits@D@std@@@std@@MAE?AV?$fpos@H@2@V32@H@Z 00403f90 f i main.obj
 0001:00003080       ?setbuf@?$basic_filebuf@DU?$char_traits@D@std@@@std@@MAEPAV?$basic_streambuf@DU?$char_traits@D@std@@@2@PAD_J@Z 00404080 f i main.obj
 0001:000030f0       ?sync@?$basic_filebuf@DU?$char_traits@D@std@@@std@@MAEHXZ 004040f0 f i main.obj
 0001:00003170       ?imbue@?$basic_filebuf@DU?$char_traits@D@std@@@std@@MAEXABVlocale@2@@Z 00404170 f i main.obj
 0001:000031a0       ??1?$_String_iterator@DU?$char_traits@D@std@@V?$allocator@D@2@@std@@QAE@XZ 004041a0 f i main.obj
 0001:000031c0       ??1?$_String_const_iterator@DU?$char_traits@D@std@@V?$allocator@D@2@@std@@QAE@XZ 004041c0 f i main.obj
 0001:000031e0       ??_E?$basic_ostream@DU?$char_traits@D@std@@@std@@UAEPAXI@Z 004041e0 f i main.obj
 0001:000031e0       ??_G?$basic_ostream@DU?$char_traits@D@std@@@std@@UAEPAXI@Z 004041e0 f i main.obj
 0001:00003220       ??_E?$basic_ios@DU?$char_traits@D@std@@@std@@UAEPAXI@Z 00404220 f i main.obj
 0001:00003220       ??_G?$basic_ios@DU?$char_traits@D@std@@@std@@UAEPAXI@Z 00404220 f i main.obj
 0001:00003250       ??_G?$basic_streambuf@DU?$char_traits@D@std@@@std@@UAEPAXI@Z 00404250 f i main.obj
 0001:00003250       ??_E?$basic_streambuf@DU?$char_traits@D@std@@@std@@UAEPAXI@Z 00404250 f i main.obj
 0001:00003280       ??_E?$basic_ofstream@DU?$char_traits@D@std@@@std@@UAEPAXI@Z 00404280 f i main.obj
 0001:00003280       ??_G?$basic_ofstream@DU?$char_traits@D@std@@@std@@UAEPAXI@Z 00404280 f i main.obj
 0001:000032c0       ??_E?$basic_filebuf@DU?$char_traits@D@std@@@std@@UAEPAXI@Z 004042c0 f i main.obj
 0001:000032c0       ??_G?$basic_filebuf@DU?$char_traits@D@std@@@std@@UAEPAXI@Z 004042c0 f i main.obj
 0001:000032f0       ??1?$_Iterator012@Urandom_access_iterator_tag@std@@DHPBDABDU_Iterator_base12@2@@std@@QAE@XZ 004042f0 f i main.obj
 0001:00003310       ??1_Iterator_base12@std@@QAE@XZ 00404310 f i main.obj
 0001:00003370       ?_Orphan_me@_Iterator_base12@std@@QAEXXZ 00404370 f i main.obj
 0001:000033f0       ??_D?$basic_ostream@DU?$char_traits@D@std@@@std@@QAEXXZ 004043f0 f i main.obj
 0001:00003420       ??0?$basic_string@DU?$char_traits@D@std@@V?$allocator@D@2@@std@@QAE@ID@Z 00404420 f i main.obj
 0001:000034a0       ?append@?$basic_string@DU?$char_traits@D@std@@V?$allocator@D@2@@std@@QAEAAV12@ID@Z 004044a0 f i main.obj
 0001:00003520       ?assign@?$basic_string@DU?$char_traits@D@std@@V?$allocator@D@2@@std@@QAEAAV12@PBD@Z 00404520 f i main.obj
 0001:00003560       ?length@?$char_traits@D@std@@SAIPBD@Z 00404560 f i main.obj
 0001:000035a0       ?erase@?$basic_string@DU?$char_traits@D@std@@V?$allocator@D@2@@std@@QAEAAV12@II@Z 004045a0 f i main.obj
 0001:00003630       ?move@?$char_traits@D@std@@SAPADPADPBDI@Z 00404630 f i main.obj
 0001:00003650       ?begin@?$basic_string@DU?$char_traits@D@std@@V?$allocator@D@2@@std@@QAE?AV?$_String_iterator@DU?$char_traits@D@std@@V?$allocator@D@2@@2@XZ 00404650 f i main.obj
 0001:00003690       ?_Tidy@?$basic_string@DU?$char_traits@D@std@@V?$allocator@D@2@@std@@QAEX_NI@Z 00404690 f i main.obj
 0001:00003710       ??0?$_String_val@DV?$allocator@D@std@@@std@@QAE@V?$allocator@D@1@@Z 00404710 f i main.obj
 0001:000037c0       ??0_Iterator_base12@std@@QAE@XZ 004047c0 f i main.obj
 0001:000037c0       ??0_Container_proxy@std@@QAE@XZ 004047c0 f i main.obj
 0001:000037f0       ??0_Container_base12@std@@QAE@XZ 004047f0 f i main.obj
 0001:00003810       ??1_Container_base12@std@@QAE@XZ 00404810 f i main.obj
 0001:00003830       ?_Orphan_all@_Container_base12@std@@QAEXXZ 00404830 f i main.obj
 0001:000038a0       ??1?$_String_val@DV?$allocator@D@std@@@std@@QAE@XZ 004048a0 f i main.obj
 0001:00003930       ??0?$allocator@D@std@@QAE@XZ 00404930 f i main.obj
 0001:00003940       ??0?$basic_ostream@DU?$char_traits@D@std@@@std@@QAE@PAV?$basic_streambuf@DU?$char_traits@D@std@@@1@_N@Z 00404940 f i main.obj
 0001:000039e0       ??0?$basic_ios@DU?$char_traits@D@std@@@std@@IAE@XZ 004049e0 f i main.obj
 0001:00003a00       ??0ios_base@std@@IAE@XZ    00404a00 f i main.obj
 0001:00003a20       ?eback@?$basic_streambuf@DU?$char_traits@D@std@@@std@@IBEPADXZ 00404a20 f i main.obj
 0001:00003a40       ?gptr@?$basic_streambuf@DU?$char_traits@D@std@@@std@@IBEPADXZ 00404a40 f i main.obj
 0001:00003a60       ?pptr@?$basic_streambuf@DU?$char_traits@D@std@@@std@@IBEPADXZ 00404a60 f i main.obj
 0001:00003a80       ?egptr@?$basic_streambuf@DU?$char_traits@D@std@@@std@@IBEPADXZ 00404a80 f i main.obj
 0001:00003aa0       ?gbump@?$basic_streambuf@DU?$char_traits@D@std@@@std@@IAEXH@Z 00404aa0 f i main.obj
 0001:00003ae0       ?epptr@?$basic_streambuf@DU?$char_traits@D@std@@@std@@IBEPADXZ 00404ae0 f i main.obj
 0001:00003b00       ?_Gndec@?$basic_streambuf@DU?$char_traits@D@std@@@std@@IAEPADXZ 00404b00 f i main.obj
 0001:00003b40       ?_Gninc@?$basic_streambuf@DU?$char_traits@D@std@@@std@@IAEPADXZ 00404b40 f i main.obj
 0001:00003b90       ?_Gnavail@?$basic_streambuf@DU?$char_traits@D@std@@@std@@IBE_JXZ 00404b90 f i main.obj
 0001:00003bc0       ?pbump@?$basic_streambuf@DU?$char_traits@D@std@@@std@@IAEXH@Z 00404bc0 f i main.obj
 0001:00003c00       ?_Pninc@?$basic_streambuf@DU?$char_traits@D@std@@@std@@IAEPADXZ 00404c00 f i main.obj
 0001:00003c50       ?_Pnavail@?$basic_streambuf@DU?$char_traits@D@std@@@std@@IBE_JXZ 00404c50 f i main.obj
 0001:00003c80       ??0?$basic_filebuf@DU?$char_traits@D@std@@@std@@QAE@PAU_iobuf@@@Z 00404c80 f i main.obj
 0001:00003cf0       ?close@?$basic_filebuf@DU?$char_traits@D@std@@@std@@QAEPAV12@XZ 00404cf0 f i main.obj
 0001:00003d60       ?_Init@?$basic_filebuf@DU?$char_traits@D@std@@@std@@IAEXPAU_iobuf@@W4_Initfl@12@@Z 00404d60 f i main.obj
 0001:00003e00       ?_Endwrite@?$basic_filebuf@DU?$char_traits@D@std@@@std@@IAE_NXZ 00404e00 f i main.obj
 0001:00004130       ?_Initcvt@?$basic_filebuf@DU?$char_traits@D@std@@@std@@IAEXPBV?$codecvt@DDH@2@@Z 00405130 f i main.obj
 0001:00004170       ?always_noconv@codecvt_base@std@@QBE_NXZ 00405170 f i main.obj
 0001:00004190       ?_Reset_back@?$basic_filebuf@DU?$char_traits@D@std@@@std@@AAEXXZ 00405190 f i main.obj
 0001:000041d0       ?_Set_back@?$basic_filebuf@DU?$char_traits@D@std@@@std@@AAEXXZ 004051d0 f i main.obj
 0001:00004230       ??D?$_String_iterator@DU?$char_traits@D@std@@V?$allocator@D@2@@std@@QBEAADXZ 00405230 f i main.obj
 0001:00004250       ??0?$fpos@H@std@@QAE@_J@Z  00405250 f i main.obj
 0001:00004290       ??0?$fpos@H@std@@QAE@H_J@Z 00405290 f i main.obj
 0001:000042d0       ?state@?$fpos@H@std@@QBEHXZ 004052d0 f i main.obj
 0001:000042f0       ?seekpos@?$fpos@H@std@@QBE_JXZ 004052f0 f i main.obj
 0001:00004310       ??B?$fpos@H@std@@QBE_JXZ   00405310 f i main.obj
 0001:00004330       ?in@?$codecvt@DDH@std@@QBEHAAHPBD1AAPBDPAD3AAPAD@Z 00405330 f i main.obj
 0001:00004370       ?out@?$codecvt@DDH@std@@QBEHAAHPBD1AAPBDPAD3AAPAD@Z 00405370 f i main.obj
 0001:000043b0       ?assign@?$basic_string@DU?$char_traits@D@std@@V?$allocator@D@2@@std@@QAEAAV12@PBDI@Z 004053b0 f i main.obj
 0001:00004450       ?assign@?$basic_string@DU?$char_traits@D@std@@V?$allocator@D@2@@std@@QAEAAV12@ID@Z 00405450 f i main.obj
 0001:000044b0       ?_Chassign@?$basic_string@DU?$char_traits@D@std@@V?$allocator@D@2@@std@@QAEXIID@Z 004054b0 f i main.obj
 0001:00004500       ?assign@?$char_traits@D@std@@SAPADPADID@Z 00405500 f i main.obj
 0001:00004520       ?assign@?$char_traits@D@std@@SAXAADABD@Z 00405520 f i main.obj
 0001:00004530       ?_Eos@?$basic_string@DU?$char_traits@D@std@@V?$allocator@D@2@@std@@QAEXI@Z 00405530 f i main.obj
 0001:00004570       ?_Grow@?$basic_string@DU?$char_traits@D@std@@V?$allocator@D@2@@std@@QAE_NI_N@Z 00405570 f i main.obj
 0001:00004610       ?_Myptr@?$basic_string@DU?$char_traits@D@std@@V?$allocator@D@2@@std@@QAEPADXZ 00405610 f i main.obj
 0001:00004610       ?_Myptr@?$basic_string@DU?$char_traits@D@std@@V?$allocator@D@2@@std@@QBEPBDXZ 00405610 f i main.obj
 0001:00004640       ?_Xlen@?$basic_string@DU?$char_traits@D@std@@V?$allocator@D@2@@std@@QBEXXZ 00405640 f i main.obj
 0001:00004660       ?_Xran@?$basic_string@DU?$char_traits@D@std@@V?$allocator@D@2@@std@@QBEXXZ 00405660 f i main.obj
 0001:00004680       ?deallocate@?$allocator@U_Container_proxy@std@@@std@@QAEXPAU_Container_proxy@2@I@Z 00405680 f i main.obj
 0001:00004680       ?deallocate@?$allocator@D@std@@QAEXPADI@Z 00405680 f i main.obj
 0001:000046a0       ?init@?$basic_ios@DU?$char_traits@D@std@@@std@@IAEXPAV?$basic_streambuf@DU?$char_traits@D@std@@@2@_N@Z 004056a0 f i main.obj
 0001:00004710       ?_Init@ios_base@std@@IAEXXZ 00405710 f i main.obj
 0001:000047d0       ??0locale@std@@QAE@XZ      004057d0 f i main.obj
 0001:00004800       ?_Incref@facet@locale@std@@QAEXXZ 00405800 f i main.obj
 0001:00004840       ?clear@ios_base@std@@QAEXH@Z 00405840 f i main.obj
 0001:00004860       ?clear@ios_base@std@@QAEXH_N@Z 00405860 f i main.obj
 0001:00004950       ??0runtime_error@std@@QAE@ABV01@@Z 00405950 f i main.obj
 0001:00004980       ??_Eruntime_error@std@@UAEPAXI@Z 00405980 f i main.obj
 0001:00004980       ??_Gruntime_error@std@@UAEPAXI@Z 00405980 f i main.obj
 0001:000049b0       ??1runtime_error@std@@UAE@XZ 004059b0 f i main.obj
 0001:000049d0       ?make_error_code@std@@YA?AVerror_code@1@W4io_errc@31@@Z 004059d0 f i main.obj
 0001:000049f0       ??0error_code@std@@QAE@HABVerror_category@1@@Z 004059f0 f i main.obj
 0001:00004a20       ??0failure@ios_base@std@@QAE@PBDABVerror_code@2@@Z 00405a20 f i main.obj
 0001:00004a50       ??0system_error@std@@QAE@Verror_code@1@PBD@Z 00405a50 f i main.obj
 0001:00004ad0       ??0runtime_error@std@@QAE@PBD@Z 00405ad0 f i main.obj
 0001:00004b00       ?_Makestr@system_error@std@@AAEXXZ 00405b00 f i main.obj
 0001:00004b10       ??_Gsystem_error@std@@UAEPAXI@Z 00405b10 f i main.obj
 0001:00004b10       ??_Esystem_error@std@@UAEPAXI@Z 00405b10 f i main.obj
 0001:00004b40       ??1system_error@std@@UAE@XZ 00405b40 f i main.obj
 0001:00004b60       ??_Gfailure@ios_base@std@@UAEPAXI@Z 00405b60 f i main.obj
 0001:00004b60       ??_Efailure@ios_base@std@@UAEPAXI@Z 00405b60 f i main.obj
 0001:00004b90       ??1failure@ios_base@std@@UAE@XZ 00405b90 f i main.obj
 0001:00004bb0       ??0failure@ios_base@std@@QAE@ABV012@@Z 00405bb0 f i main.obj
 0001:00004be0       ??0system_error@std@@QAE@ABV01@@Z 00405be0 f i main.obj
 0001:00004c20       ?setstate@?$basic_ios@DU?$char_traits@D@std@@@std@@QAEXH_N@Z 00405c20 f i main.obj
 0001:00004c50       ?rdstate@ios_base@std@@QBEHXZ 00405c50 f i main.obj
 0001:00004c70       ?clear@?$basic_ios@DU?$char_traits@D@std@@@std@@QAEXH_N@Z 00405c70 f i main.obj
 0001:00004cb0       ??0?$basic_streambuf@DU?$char_traits@D@std@@@std@@IAE@XZ 00405cb0 f i main.obj
 0001:00004d60       ?setg@?$basic_streambuf@DU?$char_traits@D@std@@@std@@IAEXPAD00@Z 00405d60 f i main.obj
 0001:00004da0       ?_Init@?$basic_streambuf@DU?$char_traits@D@std@@@std@@IAEXXZ 00405da0 f i main.obj
 0001:00004e10       ?_Init@?$basic_streambuf@DU?$char_traits@D@std@@@std@@IAEXPAPAD0PAH001@Z 00405e10 f i main.obj
 0001:00004e60       ??0?$_String_iterator@DU?$char_traits@D@std@@V?$allocator@D@2@@std@@QAE@PADPBU_Container_base12@1@@Z 00405e60 f i main.obj
 0001:00004e80       ??D?$_String_const_iterator@DU?$char_traits@D@std@@V?$allocator@D@2@@std@@QBEABDXZ 00405e80 f i main.obj
 0001:00004f50       ?_Getcont@_Iterator_base12@std@@QBEPBU_Container_base12@2@XZ 00405f50 f i main.obj
 0001:00004f80       ?unshift@?$codecvt@DDH@std@@QBEHAAHPAD1AAPAD@Z 00405f80 f i main.obj
 0001:00004fb0       ?allocate@?$allocator@U_Container_proxy@std@@@std@@QAEPAU_Container_proxy@2@I@Z 00405fb0 f i main.obj
 0001:00004fd0       ?assign@?$basic_string@DU?$char_traits@D@std@@V?$allocator@D@2@@std@@QAEAAV12@ABV12@II@Z 00405fd0 f i main.obj
 0001:00005090       ?max_size@?$basic_string@DU?$char_traits@D@std@@V?$allocator@D@2@@std@@QBEIXZ 00406090 f i main.obj
 0001:000050d0       ?_Copy@?$basic_string@DU?$char_traits@D@std@@V?$allocator@D@2@@std@@QAEXII@Z 004060d0 f i main.obj
 0001:00005260       ?_Inside@?$basic_string@DU?$char_traits@D@std@@V?$allocator@D@2@@std@@QAE_NPBD@Z 00406260 f i main.obj
 0001:000052a0       ?widen@?$basic_ios@DU?$char_traits@D@std@@@std@@QBEDD@Z 004062a0 f i main.obj
 0001:00005320       ??1locale@std@@QAE@XZ      00406320 f i main.obj
 0001:00005350       ?_Decref@facet@locale@std@@QAEPAV123@XZ 00406350 f i main.obj
 0001:000053b0       ?widen@?$ctype@D@std@@QBEDD@Z 004063b0 f i main.obj
 0001:000053d0       ?getloc@ios_base@std@@QBE?AVlocale@2@XZ 004063d0 f i main.obj
 0001:00005410       ??0locale@std@@QAE@ABV01@@Z 00406410 f i main.obj
 0001:00005440       ?setp@?$basic_streambuf@DU?$char_traits@D@std@@@std@@IAEXPAD0@Z 00406440 f i main.obj
 0001:00005480       ??0?$_String_const_iterator@DU?$char_traits@D@std@@V?$allocator@D@2@@std@@QAE@PBDPBU_Container_base12@1@@Z 00406480 f i main.obj
 0001:000054f0       ?_Adopt@_Iterator_base12@std@@QAEXPBU_Container_base12@2@@Z 004064f0 f i main.obj
 0001:00005590       ??0?$_Iterator012@Urandom_access_iterator_tag@std@@DHPBDABDU_Iterator_base12@2@@std@@QAE@XZ 00406590 f i main.obj
 0001:000055b0       ?allocate@?$allocator@D@std@@QAEPADI@Z 004065b0 f i main.obj
 0001:000055d0       ?max_size@?$allocator@D@std@@QBEIXZ 004065d0 f i main.obj
 0001:00005600       ??$_DebugHeapDelete@Vfacet@locale@std@@@std@@YAXPAVfacet@locale@0@@Z 00406600 f i main.obj
 0001:00005630       ??$use_facet@V?$ctype@D@std@@@std@@YAABV?$ctype@D@0@ABVlocale@0@@Z 00406630 f i main.obj
 0001:00005720       ??Bid@locale@std@@QAEIXZ   00406720 f i main.obj
 0001:00005770       ?_Register@facet@locale@std@@QAEXXZ 00406770 f i main.obj
 0001:00005790       ?_Getfacet@locale@std@@QBEPBVfacet@12@I@Z 00406790 f i main.obj
 0001:00005820       ?_Getcat@?$ctype@D@std@@SAIPAPBVfacet@locale@2@PBV42@@Z 00406820 f i main.obj
 0001:00005920       ??0_Locinfo@std@@QAE@PBD@Z 00406920 f i main.obj
 0001:000059f0       ??1_Locinfo@std@@QAE@XZ    004069f0 f i main.obj
 0001:00005a90       ??2facet@locale@std@@SAPAXIABU_DebugHeapTag_t@2@PADH@Z 00406a90 f i main.obj
 0001:00005ab0       ??3facet@locale@std@@SAXPAXABU_DebugHeapTag_t@2@PADH@Z 00406ab0 f i main.obj
 0001:00005ad0       ??3facet@locale@std@@SAXPAX@Z 00406ad0 f i main.obj
 0001:00005af0       ?c_str@locale@std@@QBEPBDXZ 00406af0 f i main.obj
 0001:00005b10       ??0?$ctype@D@std@@QAE@ABV_Locinfo@1@I@Z 00406b10 f i main.obj
 0001:00005b80       ??0ctype_base@std@@QAE@I@Z 00406b80 f i main.obj
 0001:00005bb0       ??0facet@locale@std@@IAE@I@Z 00406bb0 f i main.obj
 0001:00005be0       ??_Gfacet@locale@std@@UAEPAXI@Z 00406be0 f i main.obj
 0001:00005be0       ??_Efacet@locale@std@@UAEPAXI@Z 00406be0 f i main.obj
 0001:00005c10       ??1facet@locale@std@@UAE@XZ 00406c10 f i main.obj
 0001:00005c30       ??1ctype_base@std@@UAE@XZ  00406c30 f i main.obj
 0001:00005c50       ??_Gctype_base@std@@UAEPAXI@Z 00406c50 f i main.obj
 0001:00005c50       ??_Ectype_base@std@@UAEPAXI@Z 00406c50 f i main.obj
 0001:00005c80       ?_Init@?$ctype@D@std@@IAEXABV_Locinfo@2@@Z 00406c80 f i main.obj
 0001:00005cc0       ?_Getctype@_Locinfo@std@@QBE?AU_Ctypevec@@XZ 00406cc0 f i main.obj
 0001:00005d10       ?do_tolower@?$ctype@D@std@@MBEDD@Z 00406d10 f i main.obj
 0001:00005d40       ?do_tolower@?$ctype@D@std@@MBEPBDPADPBD@Z 00406d40 f i main.obj
 0001:00005da0       ?do_toupper@?$ctype@D@std@@MBEDD@Z 00406da0 f i main.obj
 0001:00005dd0       ?do_toupper@?$ctype@D@std@@MBEPBDPADPBD@Z 00406dd0 f i main.obj
 0001:00005e30       ?do_widen@?$ctype@D@std@@MBEDD@Z 00406e30 f i main.obj
 0001:00005e40       ?do_widen@?$ctype@D@std@@MBEPBDPBD0PAD@Z 00406e40 f i main.obj
 0001:00005ea0       ?do_narrow@?$ctype@D@std@@MBEDDD@Z 00406ea0 f i main.obj
 0001:00005eb0       ?do_narrow@?$ctype@D@std@@MBEPBDPBD0DPAD@Z 00406eb0 f i main.obj
 0001:00005f10       ??_E?$ctype@D@std@@MAEPAXI@Z 00406f10 f i main.obj
 0001:00005f10       ??_G?$ctype@D@std@@MAEPAXI@Z 00406f10 f i main.obj
 0001:00005f40       ??1?$ctype@D@std@@MAE@XZ   00406f40 f i main.obj
 0001:00005fa0       ?_Tidy@?$ctype@D@std@@IAEXXZ 00406fa0 f i main.obj
 0001:00005ff0       ??0?$_Yarn@D@std@@QAE@XZ   00406ff0 f i main.obj
 0001:00006010       ??1?$_Yarn@D@std@@QAE@XZ   00407010 f i main.obj
 0001:00006030       ?c_str@?$_Yarn@D@std@@QBEPBDXZ 00407030 f i main.obj
 0001:00006060       ?_Tidy@?$_Yarn@D@std@@AAEXXZ 00407060 f i main.obj
 0001:00006090       ??$_Debug_range@PBD@std@@YAXPBD0PB_WI@Z 00407090 f i main.obj
 0001:000060d0       ??$_Debug_pointer@D@std@@YAXPBDPB_WI@Z 004070d0 f i main.obj
 0001:000060d0       ??$_Debug_pointer@D@std@@YAXPADPB_WI@Z 004070d0 f i main.obj
 0001:000060f0       ??$_DebugHeapDelete@Vlocale@std@@@std@@YAXPAVlocale@0@@Z 004070f0 f i main.obj
 0001:00006120       ??$use_facet@V?$codecvt@DDH@std@@@std@@YAABV?$codecvt@DDH@0@ABVlocale@0@@Z 00407120 f i main.obj
 0001:00006210       ??$?0D@?$allocator@U_Container_proxy@std@@@std@@QAE@ABV?$allocator@D@1@@Z 00407210 f i main.obj
 0001:00006210       ??0?$allocator@D@std@@QAE@ABV01@@Z 00407210 f i main.obj
 0001:00006220       ??$_Cons_val@V?$allocator@U_Container_proxy@std@@@std@@U_Container_proxy@2@U32@@std@@YAXAAV?$allocator@U_Container_proxy@std@@@0@PAU_Container_proxy@0@$$QAU20@@Z 00407220 f i main.obj
 0001:00006240       ??$_Dest_val@V?$allocator@U_Container_proxy@std@@@std@@U_Container_proxy@2@@std@@YAXAAV?$allocator@U_Container_proxy@std@@@0@PAU_Container_proxy@0@@Z 00407240 f i main.obj
 0001:00006260       ??$_Allocate@U_Container_proxy@std@@@std@@YAPAU_Container_proxy@0@IPAU10@@Z 00407260 f i main.obj
 0001:000062c0       ??0bad_alloc@std@@QAE@PBD@Z 004072c0 f i main.obj
 0001:000062f0       ??1bad_alloc@std@@UAE@XZ   004072f0 f i main.obj
 0001:00006310       ??_Ebad_alloc@std@@UAEPAXI@Z 00407310 f i main.obj
 0001:00006310       ??_Gbad_alloc@std@@UAEPAXI@Z 00407310 f i main.obj
 0001:00006340       ??$_Allocate@D@std@@YAPADIPAD@Z 00407340 f i main.obj
 0001:000063a0       ??_Glocale@std@@QAEPAXI@Z  004073a0 f i main.obj
 0001:000063d0       ??0bad_alloc@std@@QAE@ABV01@@Z 004073d0 f i main.obj
 0001:00006400       ?_Getcat@?$codecvt@DDH@std@@SAIPAPBVfacet@locale@2@PBV42@@Z 00407400 f i main.obj
 0001:00006500       ?construct@?$allocator@U_Container_proxy@std@@@std@@QAEXPAU_Container_proxy@2@$$QAU32@@Z 00407500 f i main.obj
 0001:00006590       ??2@YAPAXIPAX@Z            00407590 f i main.obj
 0001:000065a0       ??3@YAXPAX0@Z              004075a0 f i main.obj
 0001:000065a0       ??$_Destroy@U_Container_proxy@std@@@std@@YAXPAU_Container_proxy@0@@Z 004075a0 f i main.obj
 0001:000065b0       ?destroy@?$allocator@U_Container_proxy@std@@@std@@QAEXPAU_Container_proxy@2@@Z 004075b0 f i main.obj
 0001:000065d0       ??0?$codecvt@DDH@std@@QAE@ABV_Locinfo@1@I@Z 004075d0 f i main.obj
 0001:00006640       ??0codecvt_base@std@@QAE@I@Z 00407640 f i main.obj
 0001:00006670       ??1codecvt_base@std@@UAE@XZ 00407670 f i main.obj
 0001:00006690       ?do_always_noconv@codecvt_base@std@@MBE_NXZ 00407690 f i main.obj
 0001:000066a0       ?do_encoding@codecvt_base@std@@MBEHXZ 004076a0 f i main.obj
 0001:000066a0       ?do_max_length@codecvt_base@std@@MBEHXZ 004076a0 f i main.obj
 0001:000066b0       ??_Ecodecvt_base@std@@UAEPAXI@Z 004076b0 f i main.obj
 0001:000066b0       ??_Gcodecvt_base@std@@UAEPAXI@Z 004076b0 f i main.obj
 0001:000066e0       ?do_out@?$codecvt@DDH@std@@MBEHAAHPBD1AAPBDPAD3AAPAD@Z 004076e0 f i main.obj
 0001:000066e0       ?do_in@?$codecvt@DDH@std@@MBEHAAHPBD1AAPBDPAD3AAPAD@Z 004076e0 f i main.obj
 0001:00006710       ?do_unshift@?$codecvt@DDH@std@@MBEHAAHPAD1AAPAD@Z 00407710 f i main.obj
 0001:00006730       ?do_length@?$codecvt@DDH@std@@MBEHABHPBD1I@Z 00407730 f i main.obj
 0001:00006760       ??_G?$codecvt@DDH@std@@MAEPAXI@Z 00407760 f i main.obj
 0001:00006760       ??_E?$codecvt@DDH@std@@MAEPAXI@Z 00407760 f i main.obj
 0001:00006790       ??1?$codecvt@DDH@std@@MAE@XZ 00407790 f i main.obj
 0001:000067b0       ??$_Iter_cat@PBD@std@@YA?AUrandom_access_iterator_tag@0@ABQBD@Z 004077b0 f i main.obj
 0001:000067d0       ??$_Debug_range2@PBD@std@@YAXPBD0PB_WIUrandom_access_iterator_tag@0@@Z 004077d0 f i main.obj
 0001:00006830       ??$forward@U_Container_proxy@std@@@std@@YA$$QAU_Container_proxy@0@AAU10@@Z 00407830 f i main.obj
 0001:00006840       ??0id@locale@std@@QAE@I@Z  00407840 f i main.obj
 0001:00006860       ?init_Window@@YAXHHHH_N@Z  00407860 f   Window.obj
 0001:000069c0       ?destroy_Window@@YAXXZ     004079c0 f   Window.obj
 0001:00006a00       ??0LTexture@@QAE@XZ        00407a00 f   LTexture.obj
 0001:00006a30       ??1LTexture@@QAE@XZ        00407a30 f   LTexture.obj
 0001:00006a50       ?loadFromFile@LTexture@@QAE_NV?$basic_string@DU?$char_traits@D@std@@V?$allocator@D@2@@std@@@Z 00407a50 f   LTexture.obj
 0001:00006b90       ?free@LTexture@@QAEXXZ     00407b90 f   LTexture.obj
 0001:00006bd0       ?setColor@LTexture@@QAEXEEE@Z 00407bd0 f   LTexture.obj
 0001:00006c00       ?setBlendMode@LTexture@@QAEXW4SDL_BlendMode@@@Z 00407c00 f   LTexture.obj
 0001:00006c20       ?setAlpha@LTexture@@QAEXE@Z 00407c20 f   LTexture.obj
 0001:00006c40       ?render@LTexture@@QAEXHHHHPAUSDL_Rect@@@Z 00407c40 f   LTexture.obj
 0001:00006cd0       ?getWidth@LTexture@@QAEHXZ 00407cd0 f   LTexture.obj
 0001:00006cf0       ?getHeight@LTexture@@QAEHXZ 00407cf0 f   LTexture.obj
 0001:00006d10       ?c_str@?$basic_string@DU?$char_traits@D@std@@V?$allocator@D@2@@std@@QBEPBDXZ 00407d10 f i LTexture.obj
 0001:00006d24       _SDL_DestroyTexture        00407d24 f   SDL2:SDL2.dll
 0001:00006d2a       _SDL_FreeSurface           00407d2a f   SDL2:SDL2.dll
 0001:00006d30       _SDL_RenderCopy            00407d30 f   SDL2:SDL2.dll
 0001:00006d36       _SDL_CreateTextureFromSurface 00407d36 f   SDL2:SDL2.dll
 0001:00006d3c       _SDL_RWFromFile            00407d3c f   SDL2:SDL2.dll
 0001:00006d42       _SDL_GetError              00407d42 f   SDL2:SDL2.dll
 0001:00006d48       _SDL_GetMouseState         00407d48 f   SDL2:SDL2.dll
 0001:00006d4e       _SDL_ShowCursor            00407d4e f   SDL2:SDL2.dll
 0001:00006d54       _SDL_RenderPresent         00407d54 f   SDL2:SDL2.dll
 0001:00006d5a       _SDL_Delay                 00407d5a f   SDL2:SDL2.dll
 0001:00006d60       _SDL_RenderClear           00407d60 f   SDL2:SDL2.dll
 0001:00006d66       _SDL_SetRenderDrawColor    00407d66 f   SDL2:SDL2.dll
 0001:00006d6c       _SDL_PollEvent             00407d6c f   SDL2:SDL2.dll
 0001:00006d72       _SDL_GetKeyboardState      00407d72 f   SDL2:SDL2.dll
 0001:00006d78       _SDL_SetWindowFullscreen   00407d78 f   SDL2:SDL2.dll
 0001:00006d7e       _SDL_CreateRenderer        00407d7e f   SDL2:SDL2.dll
 0001:00006d84       _SDL_CreateWindow          00407d84 f   SDL2:SDL2.dll
 0001:00006d8a       _SDL_SetHint               00407d8a f   SDL2:SDL2.dll
 0001:00006d90       _SDL_Init                  00407d90 f   SDL2:SDL2.dll
 0001:00006d96       _SDL_Quit                  00407d96 f   SDL2:SDL2.dll
 0001:00006d9c       _SDL_DestroyWindow         00407d9c f   SDL2:SDL2.dll
 0001:00006da2       _SDL_DestroyRenderer       00407da2 f   SDL2:SDL2.dll
 0001:00006da8       _SDL_SetColorKey           00407da8 f   SDL2:SDL2.dll
 0001:00006dae       _SDL_MapRGB                00407dae f   SDL2:SDL2.dll
 0001:00006db4       _SDL_SetTextureColorMod    00407db4 f   SDL2:SDL2.dll
 0001:00006dba       _SDL_SetTextureBlendMode   00407dba f   SDL2:SDL2.dll
 0001:00006dc0       _SDL_SetTextureAlphaMod    00407dc0 f   SDL2:SDL2.dll
 0001:00006dc6       _IMG_Quit                  00407dc6 f   SDL2_image:SDL2_image.dll
 0001:00006dcc       _IMG_Init                  00407dcc f   SDL2_image:SDL2_image.dll
 0001:00006dd2       _IMG_Load                  00407dd2 f   SDL2_image:SDL2_image.dll
 0001:00006dd8       _Mix_LoadWAV_RW            00407dd8 f   SDL2_mixer:SDL2_mixer.dll
 0001:00006dde       _Mix_LoadMUS               00407dde f   SDL2_mixer:SDL2_mixer.dll
 0001:00006de4       _Mix_PlayChannelTimed      00407de4 f   SDL2_mixer:SDL2_mixer.dll
 0001:00006dea       _Mix_HaltMusic             00407dea f   SDL2_mixer:SDL2_mixer.dll
 0001:00006df0       _Mix_PauseMusic            00407df0 f   SDL2_mixer:SDL2_mixer.dll
 0001:00006df6       _Mix_ResumeMusic           00407df6 f   SDL2_mixer:SDL2_mixer.dll
 0001:00006dfc       _Mix_PausedMusic           00407dfc f   SDL2_mixer:SDL2_mixer.dll
 0001:00006e02       _Mix_PlayMusic             00407e02 f   SDL2_mixer:SDL2_mixer.dll
 0001:00006e08       _Mix_PlayingMusic          00407e08 f   SDL2_mixer:SDL2_mixer.dll
 0001:00006e0e       _Mix_Quit                  00407e0e f   SDL2_mixer:SDL2_mixer.dll
 0001:00006e14       _Mix_FreeMusic             00407e14 f   SDL2_mixer:SDL2_mixer.dll
 0001:00006e1a       _Mix_FreeChunk             00407e1a f   SDL2_mixer:SDL2_mixer.dll
 0001:00006e20       _Mix_OpenAudio             00407e20 f   SDL2_mixer:SDL2_mixer.dll
 0001:00006e30       ?_Ios_base_dtor@ios_base@std@@CAXPAV12@@Z 00407e30 f   libcpmtd:ios.obj
 0001:00006e90       ?_Tidy@ios_base@std@@AAEXXZ 00407e90 f i libcpmtd:ios.obj
 0001:00006f20       ?_Callfns@ios_base@std@@AAEXW4event@12@@Z 00407f20 f i libcpmtd:ios.obj
 0001:00006f70       ?_Addstd@ios_base@std@@SAXPAV12@@Z 00407f70 f   libcpmtd:ios.obj
 0001:00007010       ??$_DebugHeapDelete@U_Fnarray@ios_base@std@@@std@@YAXPAU_Fnarray@ios_base@0@@Z 00408010 f i libcpmtd:ios.obj
 0001:00007010       ??$_DebugHeapDelete@U_Iosarray@ios_base@std@@@std@@YAXPAU_Iosarray@ios_base@0@@Z 00408010 f i libcpmtd:ios.obj
 0001:00007010       ??$_DebugHeapDelete@U_RTL_CRITICAL_SECTION@@@std@@YAXPAU_RTL_CRITICAL_SECTION@@@Z 00408010 f i libcpmtd:xmutex.obj
 0001:00007030       ??0_Mutex@std@@QAE@XZ      00408030 f   libcpmtd:xmutex.obj
 0001:00007080       ??1_Mutex@std@@QAE@XZ      00408080 f   libcpmtd:xmutex.obj
 0001:000070b0       ?_Lock@_Mutex@std@@QAEXXZ  004080b0 f   libcpmtd:xmutex.obj
 0001:000070d0       ?_Unlock@_Mutex@std@@QAEXXZ 004080d0 f   libcpmtd:xmutex.obj
 0001:000070f0       ??0_Init_locks@std@@QAE@XZ 004080f0 f   libcpmtd:xlock.obj
 0001:00007140       ??1_Init_locks@std@@QAE@XZ 00408140 f   libcpmtd:xlock.obj
 0001:00007190       ??0_Lockit@std@@QAE@H@Z    00408190 f   libcpmtd:xlock.obj
 0001:000071d0       ??1_Lockit@std@@QAE@XZ     004081d0 f   libcpmtd:xlock.obj
 0001:00007200       ?_Debug_message@std@@YAXPB_W0I@Z 00408200 f   libcpmtd:stdthrow.obj
 0001:00007230       ??0logic_error@std@@QAE@PBD@Z 00408230 f i libcpmtd:xthrow.obj
 0001:00007260       ??_Glogic_error@std@@UAEPAXI@Z 00408260 f i libcpmtd:xthrow.obj
 0001:00007260       ??_Elogic_error@std@@UAEPAXI@Z 00408260 f i libcpmtd:xthrow.obj
 0001:00007290       ??1logic_error@std@@UAE@XZ 00408290 f i libcpmtd:xthrow.obj
 0001:000072b0       ??0logic_error@std@@QAE@ABV01@@Z 004082b0 f i libcpmtd:xthrow.obj
 0001:000072e0       ?_Xlength_error@std@@YAXPBD@Z 004082e0 f   libcpmtd:xthrow.obj
 0001:00007310       ??0length_error@std@@QAE@PBD@Z 00408310 f i libcpmtd:xthrow.obj
 0001:00007340       ??1out_of_range@std@@UAE@XZ 00408340 f i libcpmtd:xthrow.obj
 0001:00007340       ??1length_error@std@@UAE@XZ 00408340 f i libcpmtd:xthrow.obj
 0001:00007360       ??0length_error@std@@QAE@ABV01@@Z 00408360 f i libcpmtd:xthrow.obj
 0001:00007390       ?_Xout_of_range@std@@YAXPBD@Z 00408390 f   libcpmtd:xthrow.obj
 0001:000073c0       ??0out_of_range@std@@QAE@PBD@Z 004083c0 f i libcpmtd:xthrow.obj
 0001:000073f0       ??_Eout_of_range@std@@UAEPAXI@Z 004083f0 f i libcpmtd:xthrow.obj
 0001:000073f0       ??_Gout_of_range@std@@UAEPAXI@Z 004083f0 f i libcpmtd:xthrow.obj
 0001:000073f0       ??_Glength_error@std@@UAEPAXI@Z 004083f0 f i libcpmtd:xthrow.obj
 0001:000073f0       ??_Elength_error@std@@UAEPAXI@Z 004083f0 f i libcpmtd:xthrow.obj
 0001:00007420       ??0out_of_range@std@@QAE@ABV01@@Z 00408420 f i libcpmtd:xthrow.obj
 0001:00007450       ??2@YAPAXIABU_DebugHeapTag_t@std@@PADH@Z 00408450 f   libcpmtd:xdebug.obj
 0001:000074d0       ??0bad_alloc@std@@QAE@XZ   004084d0 f i libcpmtd:xdebug.obj
 0001:00007500       ??3@YAXPAXABU_DebugHeapTag_t@std@@PADH@Z 00408500 f   libcpmtd:xdebug.obj
 0001:00007520       ?_DebugHeapTag_func@std@@YAABU_DebugHeapTag_t@1@XZ 00408520 f   libcpmtd:xdebug.obj
 0001:00007530       ?_Facet_Register@facet@locale@std@@CAXPAV123@@Z 00408530 f   libcpmtd:locale0.obj
 0001:000075d0       ??0error_condition@std@@QAE@HABVerror_category@1@@Z 004085d0 f i libcpmtd:syserror.obj
 0001:000075d0       ??0_Fac_node@std@@QAE@PAU01@PAVfacet@locale@1@@Z 004085d0 f i libcpmtd:locale0.obj
 0001:00007600       __Deletegloballocale       00408600 f   libcpmtd:locale0.obj
 0001:00007630       ?_Getgloballocale@locale@std@@CAPAV_Locimp@12@XZ 00408630 f   libcpmtd:locale0.obj
 0001:00007640       ?_Setgloballocale@locale@std@@CAXPAX@Z 00408640 f   libcpmtd:locale0.obj
 0001:000076b0       ??0_Locimp@locale@std@@AAE@_N@Z 004086b0 f i libcpmtd:locale0.obj
 0001:00007750       ??0locale@std@@AAE@PAV_Locimp@01@@Z 00408750 f i libcpmtd:locale0.obj
 0001:00007770       ??_G_Locimp@locale@std@@MAEPAXI@Z 00408770 f i libcpmtd:locale0.obj
 0001:00007770       ??_E_Locimp@locale@std@@MAEPAXI@Z 00408770 f i libcpmtd:locale0.obj
 0001:000077a0       ??1_Locimp@locale@std@@MAE@XZ 004087a0 f i libcpmtd:locale0.obj
 0001:00007820       ?_Init@locale@std@@CAPAV_Locimp@12@XZ 00408820 f   libcpmtd:locale0.obj
 0001:00007970       ?_Locimp_dtor@_Locimp@locale@std@@CAXPAV123@@Z 00408970 f   libcpmtd:locale0.obj
 0001:00007a20       ?_Locinfo_ctor@_Locinfo@std@@SAXPAV12@PBD@Z 00408a20 f   libcpmtd:locale0.obj
 0001:00007aa0       ?_Locinfo_dtor@_Locinfo@std@@SAXPAV12@@Z 00408aa0 f   libcpmtd:locale0.obj
 0001:00007ad0       ??0?$_Yarn@D@std@@QAE@PBD@Z 00408ad0 f i libcpmtd:locale0.obj
 0001:00007b00       ??4?$_Yarn@D@std@@QAEAAV01@PBD@Z 00408b00 f i libcpmtd:locale0.obj
 0001:00007ba0       ?_Empty@?$_Yarn@D@std@@QBE_NXZ 00408ba0 f i libcpmtd:locale0.obj
 0001:00007bc0       ?_C_str@?$_Yarn@D@std@@QBEPBDXZ 00408bc0 f i libcpmtd:locale0.obj
 0001:00007bf0       ??0locale@std@@QAE@W4_Uninitialized@1@@Z 00408bf0 f i libcpmtd:locale0.obj
 0001:00007c10       ??1_Fac_tidy_reg_t@std@@QAE@XZ 00408c10 f i libcpmtd:locale0.obj
 0001:00007cb0       ??$_DebugHeapDelete@U_Fac_node@std@@@std@@YAXPAU_Fac_node@0@@Z 00408cb0 f i libcpmtd:locale0.obj
 0001:00007ce0       ??_G_Fac_node@std@@QAEPAXI@Z 00408ce0 f i libcpmtd:locale0.obj
 0001:00007d10       ??1_Fac_node@std@@QAE@XZ   00408d10 f i libcpmtd:locale0.obj
 0001:00007d40       ?iostream_category@std@@YAABVerror_category@1@XZ 00408d40 f   libcpmtd:syserror.obj
 0001:00007d50       ??0_Generic_error_category@std@@QAE@XZ 00408d50 f i libcpmtd:syserror.obj
 0001:00007d80       ??0error_category@std@@QAE@XZ 00408d80 f i libcpmtd:syserror.obj
 0001:00007da0       ??_Eerror_category@std@@UAEPAXI@Z 00408da0 f i libcpmtd:syserror.obj
 0001:00007da0       ??_Gerror_category@std@@UAEPAXI@Z 00408da0 f i libcpmtd:syserror.obj
 0001:00007dd0       ??1error_category@std@@UAE@XZ 00408dd0 f i libcpmtd:syserror.obj
 0001:00007df0       ?equivalent@error_category@std@@UBE_NHABVerror_condition@2@@Z 00408df0 f i libcpmtd:syserror.obj
 0001:00007e30       ??8error_condition@std@@QBE_NABV01@@Z 00408e30 f i libcpmtd:syserror.obj
 0001:00007e90       ??8error_category@std@@QBE_NABV01@@Z 00408e90 f i libcpmtd:syserror.obj
 0001:00007eb0       ?value@error_code@std@@QBEHXZ 00408eb0 f i libcpmtd:syserror.obj
 0001:00007eb0       ?value@error_condition@std@@QBEHXZ 00408eb0 f i libcpmtd:syserror.obj
 0001:00007ed0       ?equivalent@error_category@std@@UBE_NABVerror_code@2@H@Z 00408ed0 f i libcpmtd:syserror.obj
 0001:00007f20       ?message@_Generic_error_category@std@@UBE?AV?$basic_string@DU?$char_traits@D@std@@V?$allocator@D@2@@2@H@Z 00408f20 f i libcpmtd:syserror.obj
 0001:00007f60       ??_E_Generic_error_category@std@@UAEPAXI@Z 00408f60 f i libcpmtd:syserror.obj
 0001:00007f60       ??_E_Iostream_error_category@std@@UAEPAXI@Z 00408f60 f i libcpmtd:syserror.obj
 0001:00007f60       ??_G_Generic_error_category@std@@UAEPAXI@Z 00408f60 f i libcpmtd:syserror.obj
 0001:00007f60       ??_G_Iostream_error_category@std@@UAEPAXI@Z 00408f60 f i libcpmtd:syserror.obj
 0001:00007f90       ??0_Iostream_error_category@std@@QAE@XZ 00408f90 f i libcpmtd:syserror.obj
 0001:00007fc0       ?category@error_condition@std@@QBEABVerror_category@2@XZ 00408fc0 f i libcpmtd:syserror.obj
 0001:00007fc0       ?name@_Generic_error_category@std@@UBEPBDXZ 00408fc0 f i libcpmtd:syserror.obj
 0001:00007fc0       ?name@_Iostream_error_category@std@@UBEPBDXZ 00408fc0 f i libcpmtd:syserror.obj
 0001:00007fc0       ?category@error_code@std@@QBEABVerror_category@2@XZ 00408fc0 f i libcpmtd:syserror.obj
 0001:00007fe0       ?message@_Iostream_error_category@std@@UBE?AV?$basic_string@DU?$char_traits@D@std@@V?$allocator@D@2@@2@H@Z 00408fe0 f i libcpmtd:syserror.obj
 0001:00008040       ??1_Generic_error_category@std@@UAE@XZ 00409040 f i libcpmtd:syserror.obj
 0001:00008040       ??1_Iostream_error_category@std@@UAE@XZ 00409040 f i libcpmtd:syserror.obj
 0001:00008060       ??0_System_error_category@std@@QAE@XZ 00409060 f i libcpmtd:syserror.obj
 0001:00008090       ?name@_System_error_category@std@@UBEPBDXZ 00409090 f i libcpmtd:syserror.obj
 0001:000080b0       ?default_error_condition@error_category@std@@UBE?AVerror_condition@2@H@Z 004090b0 f i libcpmtd:syserror.obj
 0001:000080b0       ?default_error_condition@_System_error_category@std@@UBE?AVerror_condition@2@H@Z 004090b0 f i libcpmtd:syserror.obj
 0001:000080e0       ??_E_System_error_category@std@@UAEPAXI@Z 004090e0 f i libcpmtd:syserror.obj
 0001:000080e0       ??_G_System_error_category@std@@UAEPAXI@Z 004090e0 f i libcpmtd:syserror.obj
 0001:00008110       ??1_System_error_category@std@@UAE@XZ 00409110 f i libcpmtd:syserror.obj
 0001:00008130       __Tolower                  00409130 f   libcpmtd:_tolower.obj
 0001:000082b0       __Getctype                 004092b0 f   libcpmtd:_tolower.obj
 0001:00008340       __Toupper                  00409340 f   libcpmtd:_toupper.obj
 0001:000084c0       __Mtxinit                  004094c0 f   libcpmtd:xmtx.obj
 0001:000084e0       __Mtxdst                   004094e0 f   libcpmtd:xmtx.obj
 0001:00008500       __Mtxlock                  00409500 f   libcpmtd:xmtx.obj
 0001:00008520       __Mtxunlock                00409520 f   libcpmtd:xmtx.obj
 0001:00008540       ?_Atexit@@YAXP6AXXZ@Z      00409540 f   libcpmtd:iosptrs.obj
 0001:00008580       ??1_Init_atexit@@QAE@XZ    00409580 f i libcpmtd:iosptrs.obj
 0001:000085d0       _printf                    004095d0 f   LIBCMTD:printf.obj
 0001:00008710       __get_printf_count_output  00409710 f   LIBCMTD:printf.obj
 0001:00008730       @__security_check_cookie@4 00409730 f   LIBCMTD:secchk.obj
 0001:00008740       __cinit                    00409740 f   LIBCMTD:crt0dat.obj
 0001:000087e0       _exit                      004097e0 f   LIBCMTD:crt0dat.obj
 0001:00008800       __exit                     00409800 f   LIBCMTD:crt0dat.obj
 0001:00008820       __cexit                    00409820 f   LIBCMTD:crt0dat.obj
 0001:00008840       __c_exit                   00409840 f   LIBCMTD:crt0dat.obj
 0001:00008860       __amsg_exit                00409860 f   LIBCMTD:crt0dat.obj
 0001:00008890       ___freeCrtMemory           00409890 f   LIBCMTD:crt0dat.obj
 0001:00008bd0       ___crtCorExitProcess       00409bd0 f   LIBCMTD:crt0dat.obj
 0001:00008c10       ___crtExitProcess          00409c10 f   LIBCMTD:crt0dat.obj
 0001:00008c30       __lockexit                 00409c30 f   LIBCMTD:crt0dat.obj
 0001:00008c50       __unlockexit               00409c50 f   LIBCMTD:crt0dat.obj
 0001:00008c70       __init_pointers            00409c70 f   LIBCMTD:crt0dat.obj
 0001:00008d00       __initterm_e               00409d00 f   LIBCMTD:crt0dat.obj
 0001:00008d40       ?_JumpToContinuation@@YGXPAXPAUEHRegistrationNode@@@Z 00409d40 f   LIBCMTD:_trnsctrl_.obj
 0001:00008d80       ?_CallMemberFunction2@@YGXPAX00H@Z 00409d80 f   LIBCMTD:_trnsctrl_.obj
 0001:00008d80       ?_CallMemberFunction1@@YGXPAX00@Z 00409d80 f   LIBCMTD:_trnsctrl_.obj
 0001:00008d80       ?_CallMemberFunction0@@YGXPAX0@Z 00409d80 f   LIBCMTD:_trnsctrl_.obj
 0001:00008d90       ?_UnwindNestedFrames@@YGXPAUEHRegistrationNode@@PAUEHExceptionRecord@@@Z 00409d90 f   LIBCMTD:_trnsctrl_.obj
 0001:00008df0       ___CxxFrameHandler3        00409df0 f   LIBCMTD:_trnsctrl_.obj
 0001:00008e30       ?_CallCatchBlock2@@YAPAXPAUEHRegistrationNode@@PBU_s_FuncInfo@@PAXHK@Z 00409e30 f   LIBCMTD:_trnsctrl_.obj
 0001:00008ef0       ?_CallSETranslator@@YAHPAUEHExceptionRecord@@PAUEHRegistrationNode@@PAX2PBU_s_FuncInfo@@H1@Z 00409ef0 f   LIBCMTD:_trnsctrl_.obj
 0001:00009090       ?_GetRangeOfTrysToCheck@@YAPBU_s_TryBlockMapEntry@@PBU_s_FuncInfo@@HHPAI1@Z 0040a090 f   LIBCMTD:_trnsctrl_.obj
 0001:00009110       __CreateFrameInfo          0040a110 f   LIBCMTD:_trnsctrl_.obj
 0001:00009140       __IsExceptionObjectToBeDestroyed 0040a140 f   LIBCMTD:_trnsctrl_.obj
 0001:00009170       __FindAndUnlinkFrame       0040a170 f   LIBCMTD:_trnsctrl_.obj
 0001:000091d0       ??3@YAXPAX@Z               0040a1d0 f   LIBCMTD:dbgdel.obj
 0001:000092c0       _memcpy                    0040a2c0 f   LIBCMTD:memcpy.obj
 0001:00009630       ___iob_func                0040a630 f   LIBCMTD:_file.obj
 0001:00009640       ___initstdio               0040a640 f   LIBCMTD:_file.obj
 0001:00009790       ___endstdio                0040a790 f   LIBCMTD:_file.obj
 0001:000097c0       __lock_file                0040a7c0 f   LIBCMTD:_file.obj
 0001:00009820       __lock_file2               0040a820 f   LIBCMTD:_file.obj
 0001:00009860       __unlock_file              0040a860 f   LIBCMTD:_file.obj
 0001:000098c0       __unlock_file2             0040a8c0 f   LIBCMTD:_file.obj
 0001:00009900       _fwrite                    0040a900 f   LIBCMTD:fwrite.obj
 0001:00009a10       __fwrite_nolock            0040aa10 f   LIBCMTD:fwrite.obj
 0001:00009de0       _fputc                     0040ade0 f   LIBCMTD:fputc.obj
 0001:0000a040       _ungetc                    0040b040 f   LIBCMTD:ungetc.obj
 0001:0000a130       __ungetc_nolock            0040b130 f   LIBCMTD:ungetc.obj
 0001:0000a350       _memcpy_s                  0040b350 f   LIBCMTD:memcpy_s.obj
 0001:0000a4e0       _fgetc                     0040b4e0 f   LIBCMTD:fgetc.obj
 0001:0000a730       _fgetpos                   0040b730 f   LIBCMTD:fgetpos.obj
 0001:0000a840       __fseeki64                 0040b840 f   LIBCMTD:fseeki64.obj
 0001:0000a9c0       __fseeki64_nolock          0040b9c0 f   LIBCMTD:fseeki64.obj
 0001:0000ab00       _fsetpos                   0040bb00 f   LIBCMTD:fsetpos.obj
 0001:0000abf0       _setvbuf                   0040bbf0 f   LIBCMTD:setvbuf.obj
 0001:0000aec0       _fflush                    0040bec0 f   LIBCMTD:fflush.obj
 0001:0000af60       __fflush_nolock            0040bf60 f   LIBCMTD:fflush.obj
 0001:0000afc0       __flush                    0040bfc0 f   LIBCMTD:fflush.obj
 0001:0000b080       __flushall                 0040c080 f   LIBCMTD:fflush.obj
 0001:0000b250       _memmove                   0040c250 f   LIBCMTD:memmove.obj
 0001:0000b5c0       _fclose                    0040c5c0 f   LIBCMTD:fclose.obj
 0001:0000b6d0       __fclose_nolock            0040c6d0 f   LIBCMTD:fclose.obj
 0001:0000b7d0       _memset                    0040c7d0 f   LIBCMTD:memset.obj
 0001:0000b850       __CxxThrowException@8      0040c850 f   LIBCMTD:throw.obj
 0001:0000b8b0       ??1type_info@@UAE@XZ       0040c8b0 f   LIBCMTD:typinfo.obj
 0001:0000b8e0       ??_Etype_info@@UAEPAXI@Z   0040c8e0 f i LIBCMTD:typinfo.obj
 0001:0000b8e0       ??_Gtype_info@@UAEPAXI@Z   0040c8e0 f i LIBCMTD:typinfo.obj
 0001:0000b910       ??8type_info@@QBE_NABV0@@Z 0040c910 f   LIBCMTD:typinfo.obj
 0001:0000b940       ??_Eexception@std@@UAEPAXI@Z 0040c940 f i LIBCMTD:stdexcpt.obj
 0001:0000b940       ??_Gexception@std@@UAEPAXI@Z 0040c940 f i LIBCMTD:stdexcpt.obj
 0001:0000b970       ??0exception@std@@QAE@ABQBD@Z 0040c970 f   LIBCMTD:stdexcpt.obj
 0001:0000b9b0       ??0exception@std@@QAE@ABQBDH@Z 0040c9b0 f   LIBCMTD:stdexcpt.obj
 0001:0000b9e0       ??0exception@std@@QAE@ABV01@@Z 0040c9e0 f   LIBCMTD:stdexcpt.obj
 0001:0000ba20       ??4exception@std@@QAEAAV01@ABV01@@Z 0040ca20 f   LIBCMTD:stdexcpt.obj
 0001:0000ba70       ??1exception@std@@UAE@XZ   0040ca70 f   LIBCMTD:stdexcpt.obj
 0001:0000ba90       ?what@exception@std@@UBEPBDXZ 0040ca90 f   LIBCMTD:stdexcpt.obj
 0001:0000bac0       ?_Copy_str@exception@std@@AAEXPBD@Z 0040cac0 f   LIBCMTD:stdexcpt.obj
 0001:0000bb30       ?_Tidy@exception@std@@AAEXXZ 0040cb30 f   LIBCMTD:stdexcpt.obj
 0001:0000bb70       ??0bad_cast@std@@QAE@PBD@Z 0040cb70 f   LIBCMTD:stdexcpt.obj
 0001:0000bba0       ??_Ebad_cast@std@@UAEPAXI@Z 0040cba0 f i LIBCMTD:stdexcpt.obj
 0001:0000bba0       ??_Gbad_cast@std@@UAEPAXI@Z 0040cba0 f i LIBCMTD:stdexcpt.obj
 0001:0000bbd0       ??0bad_cast@std@@QAE@ABV01@@Z 0040cbd0 f   LIBCMTD:stdexcpt.obj
 0001:0000bc00       ??1bad_cast@std@@UAE@XZ    0040cc00 f   LIBCMTD:stdexcpt.obj
 0001:0000bc20       __initp_misc_invarg        0040cc20 f   LIBCMTD:invarg.obj
 0001:0000bc30       __invalid_parameter        0040cc30 f   LIBCMTD:invarg.obj
 0001:0000bc90       __invoke_watson            0040cc90 f   LIBCMTD:invarg.obj
 0001:0000bcc0       __call_reportfault         0040ccc0 f   LIBCMTD:invarg.obj
 0001:0000be10       __CrtDbgReportW            0040ce10 f   LIBCMTD:dbgrptw.obj
 0001:0000be50       __CrtDbgReportWV           0040ce50 f i LIBCMTD:dbgrptw.obj
 0001:0000be80       ___crtMessageWindowW       0040ce80 f   LIBCMTD:dbgrptw.obj
 0001:0000c280       __invoke_watson_if_error   0040d280 f i LIBCMTD:dbgrptw.obj
 0001:0000c2b0       __invoke_watson_if_oneof   0040d2b0 f i LIBCMTD:dbgrptw.obj
 0001:0000c2f0       _free                      0040d2f0 f   LIBCMTD:dbgfree.obj
 0001:0000c310       ??_V@YAXPAX@Z              0040d310 f   LIBCMTD:delete2.obj
 0001:0000c330       __malloc_dbg               0040d330 f   LIBCMTD:dbgheap.obj
 0001:0000c360       __nh_malloc_dbg            0040d360 f   LIBCMTD:dbgheap.obj
 0001:0000c800       __calloc_dbg_impl          0040d800 f   LIBCMTD:dbgheap.obj
 0001:0000c880       __calloc_dbg               0040d880 f   LIBCMTD:dbgheap.obj
 0001:0000c8e0       __realloc_dbg              0040d8e0 f   LIBCMTD:dbgheap.obj
 0001:0000cf80       __free_dbg                 0040df80 f   LIBCMTD:dbgheap.obj
 0001:0000d000       __free_dbg_nolock          0040e000 f   LIBCMTD:dbgheap.obj
 0001:0000d4e0       __msize_dbg                0040e4e0 f   LIBCMTD:dbgheap.obj
 0001:0000d710       __CrtCheckMemory           0040e710 f   LIBCMTD:dbgheap.obj
 0001:0000db70       __CrtSetDbgFlag            0040eb70 f   LIBCMTD:dbgheap.obj
 0001:0000dcc0       __CrtIsValidPointer        0040ecc0 f   LIBCMTD:dbgheap.obj
 0001:0000dcd0       __CrtIsValidHeapPointer    0040ecd0 f   LIBCMTD:dbgheap.obj
 0001:0000dd20       __CrtMemCheckpoint         0040ed20 f   LIBCMTD:dbgheap.obj
 0001:0000df40       __CrtMemDumpAllObjectsSince 0040ef40 f   LIBCMTD:dbgheap.obj
 0001:0000df80       ??0_LocaleUpdate@@QAE@PAUlocaleinfo_struct@@@Z 0040ef80 f i LIBCMTD:dbgheap.obj
 0001:0000e060       ??1_LocaleUpdate@@QAE@XZ   0040f060 f i LIBCMTD:dbgheap.obj
 0001:0000e090       ?GetLocaleT@_LocaleUpdate@@QAEPAUlocaleinfo_struct@@XZ 0040f090 f i LIBCMTD:dbgheap.obj
 0001:0000e550       __CrtDumpMemoryLeaks       0040f550 f   LIBCMTD:dbgheap.obj
 0001:0000e5d0       __CrtSetCheckCount         0040f5d0 f   LIBCMTD:dbgheap.obj
 0001:0000e5f0       __CrtGetCheckCount         0040f5f0 f   LIBCMTD:dbgheap.obj
 0001:0000e600       ??2@YAPAXI@Z               0040f600 f   LIBCMTD:new.obj
 0001:0000e680       __onexit                   0040f680 f   LIBCMTD:onexit.obj
 0001:0000e850       _atexit                    0040f850 f   LIBCMTD:onexit.obj
 0001:0000e870       ___onexitinit              0040f870 f   LIBCMTD:onexit.obj
 0001:0000e8d0       ??_L@YGXPAXIHP6EX0@Z1@Z    0040f8d0 f   LIBCMTD:ehvecctr.obj
 0001:0000e980       ??_M@YGXPAXIHP6EX0@Z@Z     0040f980 f   LIBCMTD:ehvecdtr.obj
 0001:0000ea40       ?__ArrayUnwind@@YGXPAXIHP6EX0@Z@Z 0040fa40 f   LIBCMTD:ehvecdtr.obj
 0001:0000eb00       __wassert                  0040fb00 f   LIBCMTD:wassert.obj
 0001:0000f6d0       _mainCRTStartup            004106d0 f   LIBCMTD:crt0.obj
 0001:0000f930       __locterm                  00410930 f   LIBCMTD:setlocal.obj
 0001:0000fa20       _setlocale                 00410a20 f   LIBCMTD:setlocal.obj
 0001:000108d0       __expandlocale             004118d0 f   LIBCMTD:setlocal.obj
 0001:00010b80       ___init_collate            00411b80 f   LIBCMTD:initcoll.obj
 0001:00010b80       ___init_dummy              00411b80 f   LIBCMTD:setlocal.obj
 0001:00010b90       __strcats                  00411b90 f   LIBCMTD:setlocal.obj
 0001:00010c10       ___lc_strtolc              00411c10 f   LIBCMTD:setlocal.obj
 0001:00010e10       ___lc_lctostr              00411e10 f   LIBCMTD:setlocal.obj
 0001:00010eb0       __purecall                 00411eb0 f   LIBCMTD:purevirt.obj
 0001:00010ef0       _strerror                  00411ef0 f   LIBCMTD:strerror.obj
 0001:00010fa0       __get_sys_err_msg          00411fa0 f i LIBCMTD:strerror.obj
 0001:00010fe0       _strlen                    00411fe0 f   LIBCMTD:strlen.obj
 0001:00011070       ___crtLCMapStringA         00412070 f   LIBCMTD:a_map.obj
 0001:00011360       __MarkAllocaS              00412360 f i LIBCMTD:a_map.obj
 0001:00011390       __freea                    00412390 f i LIBCMTD:a_map.obj
 0001:00011450       ___pctype_func             00412450 f   LIBCMTD:ctype.obj
 0001:000114a0       __isupper_l                004124a0 f i LIBCMTD:_ctype.obj
 0001:00011520       _isupper                   00412520 f i LIBCMTD:_ctype.obj
 0001:00011550       __islower_l                00412550 f i LIBCMTD:_ctype.obj
 0001:000115d0       _islower                   004125d0 f i LIBCMTD:_ctype.obj
 0001:00011600       ___init_ctype              00412600 f   LIBCMTD:initctyp.obj
 0001:00011bb0       ____lc_codepage_func       00412bb0 f   LIBCMTD:initctyp.obj
 0001:00011c00       ____lc_handle_func         00412c00 f   LIBCMTD:initctyp.obj
 0001:00011c50       _abort                     00412c50 f   LIBCMTD:abort.obj
 0001:00011cb0       __set_abort_behavior       00412cb0 f   LIBCMTD:abort.obj
 0001:00011ce0       __stbuf                    00412ce0 f   LIBCMTD:_sftbuf.obj
 0001:00011e40       __ftbuf                    00412e40 f   LIBCMTD:_sftbuf.obj
 0001:00011ed0       __output_l                 00412ed0 f   LIBCMTD:output.obj
 0001:00013280       _get_int_arg               00414280 f i LIBCMTD:output.obj
 0001:000132a0       _get_int64_arg             004142a0 f i LIBCMTD:output.obj
 0001:000132c0       _get_short_arg             004142c0 f i LIBCMTD:output.obj
 0001:000132e0       __dosmaperr                004142e0 f   LIBCMTD:dosmap.obj
 0001:00013310       __get_errno_from_oserr     00414310 f   LIBCMTD:dosmap.obj
 0001:00013390       __errno                    00414390 f   LIBCMTD:dosmap.obj
 0001:000133c0       ___doserrno                004143c0 f   LIBCMTD:dosmap.obj
 0001:000133f0       __except_handler4          004143f0 f   LIBCMTD:chandler4.obj
 0001:00013610       ___report_gsfailure        00414610 f   LIBCMTD:gs_report.obj
 0001:00013720       __RTC_Initialize           00414720 f   LIBCMTD:_initsect_.obj
 0001:00013750       __RTC_Terminate            00414750 f   LIBCMTD:_initsect_.obj
 0001:00013780       __initp_misc_cfltcvt_tab   00414780 f   LIBCMTD:cmiscdat.obj
 0001:000137c0       __ValidateImageBase        004147c0 f   LIBCMTD:pesect.obj
 0001:00013820       __FindPESection            00414820 f   LIBCMTD:pesect.obj
 0001:000138a0       __IsNonwritableInCurrentImage 004148a0 f   LIBCMTD:pesect.obj
 0001:000139c0       __FF_MSGBANNER             004149c0 f   LIBCMTD:crt0msg.obj
 0001:00013a10       __GET_RTERRMSG             00414a10 f   LIBCMTD:crt0msg.obj
 0001:00013a60       __NMSG_WRITE               00414a60 f   LIBCMTD:crt0msg.obj
 0001:00013da0       ___updatetmbcinfo          00414da0 f   LIBCMTD:mbctype.obj
 0001:00013ec0       __setmbcp                  00414ec0 f   LIBCMTD:mbctype.obj
 0001:00014270       __setmbcp_nolock           00415270 f   LIBCMTD:mbctype.obj
 0001:00014a60       ___initmbctable            00415a60 f   LIBCMTD:mbctype.obj
 0001:00014a90       __encoded_null             00415a90 f   LIBCMTD:tidtable.obj
 0001:00014aa0       ___crtTlsAlloc@4           00415aa0 f   LIBCMTD:tidtable.obj
 0001:00014ab0       ___set_flsgetvalue         00415ab0 f   LIBCMTD:tidtable.obj
 0001:00014b00       __mtinit                   00415b00 f   LIBCMTD:tidtable.obj
 0001:00014d00       __mtterm                   00415d00 f   LIBCMTD:tidtable.obj
 0001:00014d60       __initptd                  00415d60 f   LIBCMTD:tidtable.obj
 0001:00014e90       __getptd_noexit            00415e90 f   LIBCMTD:tidtable.obj
 0001:00014f50       __getptd                   00415f50 f   LIBCMTD:tidtable.obj
 0001:00014f80       __freefls@4                00415f80 f   LIBCMTD:tidtable.obj
 0001:00015190       __mtinitlocks              00416190 f   LIBCMTD:mlock.obj
 0001:00015220       __mtdeletelocks            00416220 f   LIBCMTD:mlock.obj
 0001:000152e0       __mtinitlocknum            004162e0 f   LIBCMTD:mlock.obj
 0001:00015430       __lock                     00416430 f   LIBCMTD:mlock.obj
 0001:00015470       __unlock                   00416470 f   LIBCMTD:mlock.obj
 0001:00015490       __initp_eh_hooks           00416490 f   LIBCMTD:hooks.obj
 0001:000154b0       ?terminate@@YAXXZ          004164b0 f   LIBCMTD:hooks.obj
 0001:00015530       ?unexpected@@YAXXZ         00416530 f   LIBCMTD:hooks.obj
 0001:00015560       ?_inconsistency@@YAXXZ     00416560 f   LIBCMTD:hooks.obj
 0001:000155f0       __initp_misc_winsig        004165f0 f   LIBCMTD:winsig.obj
 0001:00015620       _raise                     00416620 f   LIBCMTD:winsig.obj
 0001:00015990       ___get_sigabrt             00416990 f   LIBCMTD:winsig.obj
 0001:000159b0       __initp_misc_rand_s        004169b0 f   LIBCMTD:rand_s.obj
 0001:000159c0       ___getlocaleinfo           004169c0 f   LIBCMTD:inithelp.obj
 0001:00015ca0       __initp_misc_purevirt      00416ca0 f   LIBCMTD:inithelp.obj
 0001:00015cb0       __initp_heap_handler       00416cb0 f   LIBCMTD:handler.obj
 0001:00015cc0       __callnewh                 00416cc0 f   LIBCMTD:handler.obj
 0001:00015d00       ___InternalCxxFrameHandler 00416d00 f   LIBCMTD:frame.obj
 0001:00016300       ??0bad_exception@std@@QAE@PBD@Z 00417300 f i LIBCMTD:frame.obj
 0001:00016330       ??1bad_exception@std@@UAE@XZ 00417330 f i LIBCMTD:frame.obj
 0001:00016350       ??_Ebad_exception@std@@UAEPAXI@Z 00417350 f i LIBCMTD:frame.obj
 0001:00016350       ??_Gbad_exception@std@@UAEPAXI@Z 00417350 f i LIBCMTD:frame.obj
 0001:00016380       ??0bad_exception@std@@QAE@ABV01@@Z 00417380 f i LIBCMTD:frame.obj
 0001:00016540       ___TypeMatch               00417540 f   LIBCMTD:frame.obj
 0001:000165f0       ___FrameUnwindFilter       004175f0 f   LIBCMTD:frame.obj
 0001:00016670       ___FrameUnwindToState      00417670 f   LIBCMTD:frame.obj
 0001:00016bb0       ___BuildCatchObjectHelper  00417bb0 f   LIBCMTD:frame.obj
 0001:00016e20       ___BuildCatchObject        00417e20 f   LIBCMTD:frame.obj
 0001:00016f30       ___DestructExceptionObject 00417f30 f   LIBCMTD:frame.obj
 0001:00016fe0       ___AdjustPointer           00417fe0 f   LIBCMTD:frame.obj
 0001:000171d0       __CallSettingFrame@12      004181d0 f   LIBCMTD:lowhelpr.obj
 0001:000171f7       __NLG_Return               004181f7     LIBCMTD:lowhelpr.obj
 0001:00017220       __VEC_memcpy               00418220 f   LIBCMTD:p4_memcpy.obj
 0001:00017330       ___sse2_available_init     00418330 f   LIBCMTD:cpu_disp.obj
 0001:00017350       __ioinit                   00418350 f   LIBCMTD:ioinit.obj
 0001:00017760       __fcloseall                00418760 f   LIBCMTD:closeall.obj
 0001:00017890       __flsbuf                   00418890 f   LIBCMTD:_flsbuf.obj
 0001:00017b50       __write                    00418b50 f   LIBCMTD:write.obj
 0001:00017d80       __write_nolock             00418d80 f   LIBCMTD:write.obj
 0001:000188c0       __fileno                   004198c0 f   LIBCMTD:fileno.obj
 0001:00018940       __getbuf                   00419940 f   LIBCMTD:_getbuf.obj
 0001:00018a10       __filbuf                   00419a10 f   LIBCMTD:_filbuf.obj
 0001:00018c60       __ftelli64                 00419c60 f   LIBCMTD:ftelli64.obj
 0001:00018d50       __ftelli64_nolock          00419d50 f   LIBCMTD:ftelli64.obj
 0001:000192e0       __lseeki64                 0041a2e0 f   LIBCMTD:lseeki64.obj
 0001:00019530       __lseeki64_nolock          0041a530 f   LIBCMTD:lseeki64.obj
 0001:00019620       __freebuf                  0041a620 f   LIBCMTD:_freebuf.obj
 0001:000196b0       __commit                   0041a6b0 f   LIBCMTD:commit.obj
 0001:000198d0       __close                    0041a8d0 f   LIBCMTD:close.obj
 0001:00019ae0       __close_nolock             0041aae0 f   LIBCMTD:close.obj
 0001:00019bb0       __VEC_memzero              0041abb0 f   LIBCMTD:p4_memset.obj
 0001:00019c70       ?_Type_info_dtor@type_info@@CAXPAV1@@Z 0041ac70 f   LIBCMTD:typname.obj
 0001:00019d80       _strcmp                    0041ad80 f   LIBCMTD:strcmp.obj
 0001:00019e10       _strcpy_s                  0041ae10 f   LIBCMTD:strcpy_s.obj
 0001:0001a0f0       _malloc                    0041b0f0 f   LIBCMTD:dbgmalloc.obj
 0001:0001a120       __CrtDefaultAllocHook      0041b120 f   LIBCMTD:dbghook.obj
 0001:0001a130       __crt_debugger_hook        0041b130 f   LIBCMTD:dbghook.obj
 0001:0001a150       __CrtDbgBreak              0041b150 f   LIBCMTD:dbgrptt.obj
 0001:0001a160       __VCrtDbgReportA           0041b160 f   LIBCMTD:dbgrptt.obj
 0001:0001a990       __VCrtDbgReportW           0041b990 f   LIBCMTD:dbgrptt.obj
 0001:0001b2c0       ___crtMessageBoxW          0041c2c0 f   LIBCMTD:crtmboxw.obj
 0001:0001b4e0       __snwprintf_s              0041c4e0 f   LIBCMTD:swprintf.obj
 0001:0001b510       _wcslen                    0041c510 f   LIBCMTD:wcslen.obj
 0001:0001b540       _wcscpy_s                  0041c540 f   LIBCMTD:wcscpy_s.obj
 0001:0001b820       __alloca_probe             0041c820     LIBCMTD:chkstk.obj
 0001:0001b820       __chkstk                   0041c820 f   LIBCMTD:chkstk.obj
 0001:0001b850       __malloc_base              0041c850 f   LIBCMTD:malloc.obj
 0001:0001b8e0       __heap_alloc_base          0041c8e0 f i LIBCMTD:malloc.obj
 0001:0001b940       __CrtDbgReport             0041c940 f   LIBCMTD:dbgrpt.obj
 0001:0001b980       __CrtDbgReportV            0041c980 f i LIBCMTD:dbgrpt.obj
 0001:0001b9b0       ___crtMessageWindowA       0041c9b0 f   LIBCMTD:dbgrpt.obj
 0001:0001bdb0       __expand_base              0041cdb0 f   LIBCMTD:expand.obj
 0001:0001bf10       __realloc_base             0041cf10 f   LIBCMTD:realloc.obj
 0001:0001c010       __free_base                0041d010 f   LIBCMTD:free.obj
 0001:0001c060       __heapchk                  0041d060 f   LIBCMTD:heapchk.obj
 0001:0001c090       __heap_init                0041d090 f   LIBCMTD:heapinit.obj
 0001:0001c0d0       ___addlocaleref            0041d0d0 f   LIBCMTD:localref.obj
 0001:0001c1f0       ___removelocaleref         0041d1f0 f   LIBCMTD:localref.obj
 0001:0001c320       ___freetlocinfo            0041d320 f   LIBCMTD:localref.obj
 0001:0001c600       __updatetlocinfoEx_nolock  0041d600 f   LIBCMTD:localref.obj
 0001:0001c680       ___updatetlocinfo          0041d680 f   LIBCMTD:localref.obj
 0001:0001c750       _sprintf_s                 0041d750 f   LIBCMTD:sprintf.obj
 0001:0001c780       __snprintf_s               0041d780 f   LIBCMTD:sprintf.obj
 0001:0001c7b0       __chvalidator              0041d7b0 f   LIBCMTD:isctype.obj
 0001:0001c800       __chvalidator_l            0041d800 f   LIBCMTD:isctype.obj
 0001:0001c8b0       __isctype_l                0041d8b0 f   LIBCMTD:isctype.obj
 0001:0001c9d0       __itow_s                   0041d9d0 f   LIBCMTD:xtows.obj
 0001:0001cdb0       _wcsncat_s                 0041ddb0 f   LIBCMTD:wcsncat_s.obj
 0001:0001d260       _wcsncpy_s                 0041e260 f   LIBCMTD:wcsncpy_s.obj
 0001:0001d670       _wcscat_s                  0041e670 f   LIBCMTD:wcscat_s.obj
 0001:0001da60       _fwprintf                  0041ea60 f   LIBCMTD:fwprintf.obj
 0001:0001dbe0       __set_error_mode           0041ebe0 f   LIBCMTD:errmode.obj
 0001:0001dca0       __vswprintf_helper         0041eca0 f   LIBCMTD:vswprnc.obj
 0001:0001df00       __vswprintf_c_l            0041ef00 f   LIBCMTD:vswprnc.obj
 0001:0001df50       __vsnwprintf_s_l           0041ef50 f   LIBCMTD:vswprnc.obj
 0001:0001e300       __vsnwprintf_s             0041f300 f   LIBCMTD:vswprnc.obj
 0001:0001e330       ?__CxxUnhandledExceptionFilter@@YGJPAU_EXCEPTION_POINTERS@@@Z 0041f330 f   LIBCMTD:unhandld.obj
 0001:0001e3a0       ___CxxSetUnhandledExceptionFilter 0041f3a0 f   LIBCMTD:unhandld.obj
 0001:0001e3c0       ___security_init_cookie    0041f3c0 f   LIBCMTD:gs_support.obj
 0001:0001e4a0       __XcptFilter               0041f4a0 f   LIBCMTD:winxfltr.obj
 0001:0001e700       __setenvp                  0041f700 f   LIBCMTD:stdenvp.obj
 0001:0001e8a0       __setargv                  0041f8a0 f   LIBCMTD:stdargv.obj
 0001:0001e9c0       __set_pgmptr               0041f9c0 f i LIBCMTD:stdargv.obj
 0001:0001ed30       ___crtGetEnvironmentStringsA 0041fd30 f   LIBCMTD:a_env.obj
 0001:0001ee30       ___init_time               0041fe30 f   LIBCMTD:inittime.obj
 0001:0001fb60       ___free_lc_time            00420b60 f   LIBCMTD:inittime.obj
 0001:000201d0       ___init_numeric            004211d0 f   LIBCMTD:initnum.obj
 0001:00020500       ___free_lconv_num          00421500 f   LIBCMTD:initnum.obj
 0001:000205b0       ___init_monetary           004215b0 f   LIBCMTD:initmon.obj
 0001:00020ba0       ___free_lconv_mon          00421ba0 f   LIBCMTD:initmon.obj
 0001:00020d50       _strncpy_s                 00421d50 f   LIBCMTD:strncpy_s.obj
 0001:00021140       _strcspn                   00422140 f   LIBCMTD:strcspn.obj
 0001:00021190       _strncmp                   00422190 f   LIBCMTD:strncmp.obj
 0001:00021310       _strpbrk                   00422310 f   LIBCMTD:strpbrk.obj
 0001:00021350       _memcmp                    00422350 f   LIBCMTD:memcmp.obj
 0001:00021dc0       ___crtGetStringTypeA       00422dc0 f   LIBCMTD:a_str.obj
 0001:00021f30       _strcat_s                  00422f30 f   LIBCMTD:strcat_s.obj
 0001:00022310       ___get_qualified_locale    00423310 f   LIBCMTD:getqloc.obj
 0001:00023170       ___sys_nerr                00424170 f   LIBCMTD:syserr.obj
 0001:00023180       ___sys_errlist             00424180 f   LIBCMTD:syserr.obj
 0001:00023190       __isatty                   00424190 f   LIBCMTD:isatty.obj
 0001:00023250       __wctomb_s_l               00424250 f   LIBCMTD:wctomb.obj
 0001:00023550       _wctomb_s                  00424550 f   LIBCMTD:wctomb.obj
 0001:00023580       __isleadbyte_l             00424580 f i LIBCMTD:_wctype.obj
 0001:000235d0       _isleadbyte                004245d0 f i LIBCMTD:_wctype.obj
 0001:000235f0       __aulldiv                  004245f0 f   LIBCMTD:ulldiv.obj
 0001:00023660       __aullrem                  00424660 f   LIBCMTD:ullrem.obj
 0001:000236e0       __local_unwind4            004246e0 f   LIBCMTD:exsup4.obj
 0001:000237b6       __seh_longjmp_unwind4@4    004247b6 f   LIBCMTD:exsup4.obj
 0001:000237d2       @_EH4_CallFilterFunc@8     004247d2 f   LIBCMTD:exsup4.obj
 0001:000237e9       @_EH4_TransferToHandler@8  004247e9 f   LIBCMTD:exsup4.obj
 0001:00023802       @_EH4_GlobalUnwind2@8      00424802 f   LIBCMTD:exsup4.obj
 0001:0002381b       @_EH4_LocalUnwind@16       0042481b f   LIBCMTD:exsup4.obj
 0001:00023840       __output_s_l               00424840 f   LIBCMTD:outputs.obj
 0001:00024d10       __fptrap                   00425d10 f   LIBCMTD:crt0fp.obj
 0001:00024d30       ___crtGetLocaleInfoA       00425d30 f   LIBCMTD:a_loc.obj
 0001:00024e90       ?_ValidateRead@@YAHPBXI@Z  00425e90 f   LIBCMTD:validate.obj
 0001:00024e90       ?_ValidateExecute@@YAHP6GHXZ@Z 00425e90 f   LIBCMTD:validate.obj
 0001:00024e90       ?_ValidateWrite@@YAHPAXI@Z 00425e90 f   LIBCMTD:validate.obj
 0001:00024ec0       __global_unwind2           00425ec0 f   LIBCMTD:exsup.obj
 0001:00024f25       __local_unwind2            00425f25 f   LIBCMTD:exsup.obj
 0001:00024fa9       __abnormal_termination     00425fa9 f   LIBCMTD:exsup.obj
 0001:00024fcc       __NLG_Notify1              00425fcc f   LIBCMTD:exsup.obj
 0001:00024fd5       __NLG_Notify               00425fd5 f   LIBCMTD:exsup.obj
 0001:00024fec       __NLG_Dispatch             00425fec     LIBCMTD:exsup.obj
 0001:00024fec       __NLG_Dispatch2            00425fec     LIBCMTD:exsup.obj
 0001:00024ff4       __NLG_Call                 00425ff4 f   LIBCMTD:exsup.obj
 0001:00024ff6       __NLG_Return2              00425ff6     LIBCMTD:exsup.obj
 0001:00025000       __free_osfhnd              00426000 f   LIBCMTD:osfinfo.obj
 0001:000250f0       __get_osfhandle            004260f0 f   LIBCMTD:osfinfo.obj
 0001:00025260       ___lock_fhandle            00426260 f   LIBCMTD:osfinfo.obj
 0001:00025360       __unlock_fhandle           00426360 f   LIBCMTD:osfinfo.obj
 0001:00025390       __putwch_nolock            00426390 f   LIBCMTD:putwch.obj
 0001:000253e0       __mbtowc_l                 004263e0 f   LIBCMTD:mbtowc.obj
 0001:00025600       _mbtowc                    00426600 f   LIBCMTD:mbtowc.obj
 0001:00025620       __read                     00426620 f   LIBCMTD:read.obj
 0001:000258b0       __read_nolock              004268b0 f   LIBCMTD:read.obj
 0001:00026800       __mbstowcs_l_helper        00427800 f   LIBCMTD:mbstowcs.obj
 0001:00026b50       __mbstowcs_s_l             00427b50 f   LIBCMTD:mbstowcs.obj
 0001:00026ed0       _mbstowcs_s                00427ed0 f   LIBCMTD:mbstowcs.obj
 0001:00026f00       __vsnprintf_helper         00427f00 f   LIBCMTD:vsnprnc.obj
 0001:000270f0       __vsprintf_s_l             004280f0 f   LIBCMTD:vsnprnc.obj
 0001:00027360       __vsnprintf_s_l            00428360 f   LIBCMTD:vsnprnc.obj
 0001:00027700       __vsnprintf_s              00428700 f   LIBCMTD:vsnprnc.obj
 0001:00027730       __itoa_s                   00428730 f   LIBCMTD:xtoas.obj
 0001:00027b00       __wcstombs_l_helper        00428b00 f   LIBCMTD:wcstombs.obj
 0001:00028040       __wcstombs_s_l             00429040 f   LIBCMTD:wcstombs.obj
 0001:00028370       _wcstombs_s                00429370 f   LIBCMTD:wcstombs.obj
 0001:000283a0       __woutput_l                004293a0 f   LIBCMTD:woutput.obj
 0001:000294e0       ___crtMessageBoxA          0042a4e0 f   LIBCMTD:crtmbox.obj
 0001:00029710       __woutput_s_l              0042a710 f   LIBCMTD:woutputs.obj
 0001:0002a9c0       __ismbblead                0042b9c0 f   LIBCMTD:ismbbyte.obj
 0001:0002aab0       __stricmp_l                0042bab0 f   LIBCMTD:stricmp.obj
 0001:0002ac60       ___ascii_stricmp           0042bc60 f   LIBCMTD:stricmp.obj
 0001:0002ace0       __stricmp                  0042bce0 f   LIBCMTD:stricmp.obj
 0001:0002adf0       __strnicmp_l               0042bdf0 f   LIBCMTD:strnicmp.obj
 0001:0002b030       __strnicmp                 0042c030 f   LIBCMTD:strnicmp.obj
 0001:0002b1c0       _atol                      0042c1c0 f   LIBCMTD:atox.obj
 0001:0002b1e0       _strtol                    0042c1e0 f   LIBCMTD:strtol.obj
 0001:0002b710       ___initconout              0042c710 f   LIBCMTD:initcon.obj
 0001:0002b740       ___termconout              0042c740 f   LIBCMTD:initcon.obj
 0001:0002b770       __allshl                   0042c770 f   LIBCMTD:llshl.obj
 0001:0002b790       __fputwc_nolock            0042c790 f   LIBCMTD:fputwc.obj
 0001:0002ba80       __tolower_l                0042ca80 f   LIBCMTD:tolower.obj
 0001:0002bc60       ___ascii_strnicmp          0042cc60 f   LIBCMTD:_strnicm.obj
 0001:0002bcd0       __flswbuf                  0042ccd0 f   LIBCMTD:_flswbuf.obj
 0001:0002bfb0       __allmul                   0042cfb0 f   LIBCMTD:llmul.obj
 0001:0002bfe4       _RtlUnwind@16              0042cfe4 f   kernel32:KERNEL32.dll
 0002:00000000       __imp__RaiseException@16   0042e000     kernel32:KERNEL32.dll
 0002:00000004       __imp__CreateFileW@28      0042e004     kernel32:KERNEL32.dll
 0002:00000008       __imp__SetStdHandle@8      0042e008     kernel32:KERNEL32.dll
 0002:0000000c       __imp__GetUserDefaultLCID@0 0042e00c     kernel32:KERNEL32.dll
 0002:00000010       __imp__EnumSystemLocalesA@8 0042e010     kernel32:KERNEL32.dll
 0002:00000014       __imp__IsValidLocale@8     0042e014     kernel32:KERNEL32.dll
 0002:00000018       __imp__GetLocaleInfoA@16   0042e018     kernel32:KERNEL32.dll
 0002:0000001c       __imp__GetStringTypeW@16   0042e01c     kernel32:KERNEL32.dll
 0002:00000020       __imp__GetEnvironmentStringsW@0 0042e020     kernel32:KERNEL32.dll
 0002:00000024       __imp__FreeEnvironmentStringsW@4 0042e024     kernel32:KERNEL32.dll
 0002:00000028       __imp__GetSystemTimeAsFileTime@4 0042e028     kernel32:KERNEL32.dll
 0002:0000002c       __imp__GetCurrentProcessId@0 0042e02c     kernel32:KERNEL32.dll
 0002:00000030       __imp__GetTickCount@0      0042e030     kernel32:KERNEL32.dll
 0002:00000034       __imp__QueryPerformanceCounter@4 0042e034     kernel32:KERNEL32.dll
 0002:00000038       __imp__HeapCreate@12       0042e038     kernel32:KERNEL32.dll
 0002:0000003c       __imp__HeapFree@12         0042e03c     kernel32:KERNEL32.dll
 0002:00000040       __imp__HeapQueryInformation@20 0042e040     kernel32:KERNEL32.dll
 0002:00000044       __imp__HeapSize@12         0042e044     kernel32:KERNEL32.dll
 0002:00000048       __imp__HeapReAlloc@16      0042e048     kernel32:KERNEL32.dll
 0002:0000004c       __imp__GetModuleFileNameA@12 0042e04c     kernel32:KERNEL32.dll
 0002:00000050       __imp__HeapAlloc@12        0042e050     kernel32:KERNEL32.dll
 0002:00000054       __imp__OutputDebugStringW@4 0042e054     kernel32:KERNEL32.dll
 0002:00000058       __imp__OutputDebugStringA@4 0042e058     kernel32:KERNEL32.dll
 0002:0000005c       __imp__CloseHandle@4       0042e05c     kernel32:KERNEL32.dll
 0002:00000060       __imp__FlushFileBuffers@4  0042e060     kernel32:KERNEL32.dll
 0002:00000064       __imp__SetFilePointer@16   0042e064     kernel32:KERNEL32.dll
 0002:00000068       __imp__ReadFile@20         0042e068     kernel32:KERNEL32.dll
 0002:0000006c       __imp__GetConsoleMode@8    0042e06c     kernel32:KERNEL32.dll
 0002:00000070       __imp__GetConsoleCP@0      0042e070     kernel32:KERNEL32.dll
 0002:00000074       __imp__GetStartupInfoW@4   0042e074     kernel32:KERNEL32.dll
 0002:00000078       __imp__SetHandleCount@4    0042e078     kernel32:KERNEL32.dll
 0002:0000007c       __imp__IsProcessorFeaturePresent@4 0042e07c     kernel32:KERNEL32.dll
 0002:00000080       __imp__GetLocaleInfoW@16   0042e080     kernel32:KERNEL32.dll
 0002:00000084       __imp__LoadLibraryW@4      0042e084     kernel32:KERNEL32.dll
 0002:00000088       __imp__InitializeCriticalSectionAndSpinCount@8 0042e088     kernel32:KERNEL32.dll
 0002:0000008c       __imp__GetLastError@0      0042e08c     kernel32:KERNEL32.dll
 0002:00000090       __imp__SetLastError@4      0042e090     kernel32:KERNEL32.dll
 0002:00000094       __imp__TlsFree@4           0042e094     kernel32:KERNEL32.dll
 0002:00000098       __imp__GetCurrentThreadId@0 0042e098     kernel32:KERNEL32.dll
 0002:0000009c       __imp__TlsSetValue@8       0042e09c     kernel32:KERNEL32.dll
 0002:000000a0       __imp__TlsGetValue@4       0042e0a0     kernel32:KERNEL32.dll
 0002:000000a4       __imp__TlsAlloc@0          0042e0a4     kernel32:KERNEL32.dll
 0002:000000a8       __imp__IsValidCodePage@4   0042e0a8     kernel32:KERNEL32.dll
 0002:000000ac       __imp__GetOEMCP@0          0042e0ac     kernel32:KERNEL32.dll
 0002:000000b0       __imp__GetACP@0            0042e0b0     kernel32:KERNEL32.dll
 0002:000000b4       __imp__WriteFile@20        0042e0b4     kernel32:KERNEL32.dll
 0002:000000b8       __imp__GetCPInfo@8         0042e0b8     kernel32:KERNEL32.dll
 0002:000000bc       __imp__MultiByteToWideChar@24 0042e0bc     kernel32:KERNEL32.dll
 0002:000000c0       __imp__LCMapStringW@24     0042e0c0     kernel32:KERNEL32.dll
 0002:000000c4       __imp__InterlockedIncrement@4 0042e0c4     kernel32:KERNEL32.dll
 0002:000000c8       __imp__InterlockedDecrement@4 0042e0c8     kernel32:KERNEL32.dll
 0002:000000cc       __imp__InitializeCriticalSection@4 0042e0cc     kernel32:KERNEL32.dll
 0002:000000d0       __imp__DeleteCriticalSection@4 0042e0d0     kernel32:KERNEL32.dll
 0002:000000d4       __imp__EnterCriticalSection@4 0042e0d4     kernel32:KERNEL32.dll
 0002:000000d8       __imp__LeaveCriticalSection@4 0042e0d8     kernel32:KERNEL32.dll
 0002:000000dc       __imp__EncodePointer@4     0042e0dc     kernel32:KERNEL32.dll
 0002:000000e0       __imp__DecodePointer@4     0042e0e0     kernel32:KERNEL32.dll
 0002:000000e4       __imp__GetProcAddress@8    0042e0e4     kernel32:KERNEL32.dll
 0002:000000e8       __imp__GetModuleHandleW@4  0042e0e8     kernel32:KERNEL32.dll
 0002:000000ec       __imp__ExitProcess@4       0042e0ec     kernel32:KERNEL32.dll
 0002:000000f0       __imp__RtlUnwind@16        0042e0f0     kernel32:KERNEL32.dll
 0002:000000f4       __imp__TerminateProcess@8  0042e0f4     kernel32:KERNEL32.dll
 0002:000000f8       __imp__GetCurrentProcess@0 0042e0f8     kernel32:KERNEL32.dll
 0002:000000fc       __imp__UnhandledExceptionFilter@4 0042e0fc     kernel32:KERNEL32.dll
 0002:00000100       __imp__SetUnhandledExceptionFilter@4 0042e100     kernel32:KERNEL32.dll
 0002:00000104       __imp__IsDebuggerPresent@0 0042e104     kernel32:KERNEL32.dll
 0002:00000108       __imp__GetModuleFileNameW@12 0042e108     kernel32:KERNEL32.dll
 0002:0000010c       __imp__HeapValidate@12     0042e10c     kernel32:KERNEL32.dll
 0002:00000110       __imp__IsBadReadPtr@8      0042e110     kernel32:KERNEL32.dll
 0002:00000114       __imp__WriteConsoleW@20    0042e114     kernel32:KERNEL32.dll
 0002:00000118       __imp__GetFileType@4       0042e118     kernel32:KERNEL32.dll
 0002:0000011c       __imp__GetStdHandle@4      0042e11c     kernel32:KERNEL32.dll
 0002:00000120       __imp__GetCommandLineA@0   0042e120     kernel32:KERNEL32.dll
 0002:00000124       __imp__HeapSetInformation@16 0042e124     kernel32:KERNEL32.dll
 0002:00000128       __imp__WideCharToMultiByte@32 0042e128     kernel32:KERNEL32.dll
 0002:0000012c       \177KERNEL32_NULL_THUNK_DATA 0042e12c     kernel32:KERNEL32.dll
 0002:00000130       __imp__SDL_SetTextureBlendMode 0042e130     SDL2:SDL2.dll
 0002:00000134       __imp__SDL_FreeSurface     0042e134     SDL2:SDL2.dll
 0002:00000138       __imp__SDL_RenderCopy      0042e138     SDL2:SDL2.dll
 0002:0000013c       __imp__SDL_CreateTextureFromSurface 0042e13c     SDL2:SDL2.dll
 0002:00000140       __imp__SDL_RWFromFile      0042e140     SDL2:SDL2.dll
 0002:00000144       __imp__SDL_GetError        0042e144     SDL2:SDL2.dll
 0002:00000148       __imp__SDL_GetMouseState   0042e148     SDL2:SDL2.dll
 0002:0000014c       __imp__SDL_ShowCursor      0042e14c     SDL2:SDL2.dll
 0002:00000150       __imp__SDL_RenderPresent   0042e150     SDL2:SDL2.dll
 0002:00000154       __imp__SDL_Delay           0042e154     SDL2:SDL2.dll
 0002:00000158       __imp__SDL_RenderClear     0042e158     SDL2:SDL2.dll
 0002:0000015c       __imp__SDL_SetRenderDrawColor 0042e15c     SDL2:SDL2.dll
 0002:00000160       __imp__SDL_PollEvent       0042e160     SDL2:SDL2.dll
 0002:00000164       __imp__SDL_GetKeyboardState 0042e164     SDL2:SDL2.dll
 0002:00000168       __imp__SDL_SetWindowFullscreen 0042e168     SDL2:SDL2.dll
 0002:0000016c       __imp__SDL_CreateRenderer  0042e16c     SDL2:SDL2.dll
 0002:00000170       __imp__SDL_CreateWindow    0042e170     SDL2:SDL2.dll
 0002:00000174       __imp__SDL_SetHint         0042e174     SDL2:SDL2.dll
 0002:00000178       __imp__SDL_Init            0042e178     SDL2:SDL2.dll
 0002:0000017c       __imp__SDL_Quit            0042e17c     SDL2:SDL2.dll
 0002:00000180       __imp__SDL_DestroyWindow   0042e180     SDL2:SDL2.dll
 0002:00000184       __imp__SDL_DestroyRenderer 0042e184     SDL2:SDL2.dll
 0002:00000188       __imp__SDL_SetColorKey     0042e188     SDL2:SDL2.dll
 0002:0000018c       __imp__SDL_MapRGB          0042e18c     SDL2:SDL2.dll
 0002:00000190       __imp__SDL_SetTextureAlphaMod 0042e190     SDL2:SDL2.dll
 0002:00000194       __imp__SDL_DestroyTexture  0042e194     SDL2:SDL2.dll
 0002:00000198       __imp__SDL_SetTextureColorMod 0042e198     SDL2:SDL2.dll
 0002:0000019c       \177SDL2_NULL_THUNK_DATA   0042e19c     SDL2:SDL2.dll
 0002:000001a0       __imp__IMG_Init            0042e1a0     SDL2_image:SDL2_image.dll
 0002:000001a4       __imp__IMG_Load            0042e1a4     SDL2_image:SDL2_image.dll
 0002:000001a8       __imp__IMG_Quit            0042e1a8     SDL2_image:SDL2_image.dll
 0002:000001ac       \177SDL2_image_NULL_THUNK_DATA 0042e1ac     SDL2_image:SDL2_image.dll
 0002:000001b0       __imp__Mix_OpenAudio       0042e1b0     SDL2_mixer:SDL2_mixer.dll
 0002:000001b4       __imp__Mix_FreeChunk       0042e1b4     SDL2_mixer:SDL2_mixer.dll
 0002:000001b8       __imp__Mix_FreeMusic       0042e1b8     SDL2_mixer:SDL2_mixer.dll
 0002:000001bc       __imp__Mix_Quit            0042e1bc     SDL2_mixer:SDL2_mixer.dll
 0002:000001c0       __imp__Mix_PlayingMusic    0042e1c0     SDL2_mixer:SDL2_mixer.dll
 0002:000001c4       __imp__Mix_PlayMusic       0042e1c4     SDL2_mixer:SDL2_mixer.dll
 0002:000001c8       __imp__Mix_PausedMusic     0042e1c8     SDL2_mixer:SDL2_mixer.dll
 0002:000001cc       __imp__Mix_LoadWAV_RW      0042e1cc     SDL2_mixer:SDL2_mixer.dll
 0002:000001d0       __imp__Mix_LoadMUS         0042e1d0     SDL2_mixer:SDL2_mixer.dll
 0002:000001d4       __imp__Mix_PlayChannelTimed 0042e1d4     SDL2_mixer:SDL2_mixer.dll
 0002:000001d8       __imp__Mix_HaltMusic       0042e1d8     SDL2_mixer:SDL2_mixer.dll
 0002:000001dc       __imp__Mix_PauseMusic      0042e1dc     SDL2_mixer:SDL2_mixer.dll
 0002:000001e0       __imp__Mix_ResumeMusic     0042e1e0     SDL2_mixer:SDL2_mixer.dll
 0002:000001e4       \177SDL2_mixer_NULL_THUNK_DATA 0042e1e4     SDL2_mixer:SDL2_mixer.dll
 0002:000001e8       ___xc_a                    0042e1e8     LIBCMTD:crt0init.obj
 0002:00000294       ___xc_z                    0042e294     LIBCMTD:crt0init.obj
 0002:00000298       ___xi_a                    0042e298     LIBCMTD:crt0init.obj
 0002:000002b0       ___xi_z                    0042e2b0     LIBCMTD:crt0init.obj
 0002:000002b4       ___xp_a                    0042e2b4     LIBCMTD:crt0init.obj
 0002:000002c4       ___xp_z                    0042e2c4     LIBCMTD:crt0init.obj
 0002:000002c8       ___xt_a                    0042e2c8     LIBCMTD:crt0init.obj
 0002:000002cc       ___xt_z                    0042e2cc     LIBCMTD:crt0init.obj
 0002:000008e4       ??_7?$basic_ios@DU?$char_traits@D@std@@@std@@6B@ 0042e8e4     main.obj
 0002:000008e8       ??_7ios_base@std@@6B@      0042e8e8     main.obj
 0002:000008ec       ??_7?$basic_ofstream@DU?$char_traits@D@std@@@std@@6B@ 0042e8ec     main.obj
 0002:000008f0       ??_8?$basic_ofstream@DU?$char_traits@D@std@@@std@@7B@ 0042e8f0     main.obj
 0002:000008f8       ??_7?$basic_ostream@DU?$char_traits@D@std@@@std@@6B@ 0042e8f8     main.obj
 0002:000008fc       ??_7?$basic_filebuf@DU?$char_traits@D@std@@@std@@6B@ 0042e8fc     main.obj
 0002:00000938       ??_7?$basic_streambuf@DU?$char_traits@D@std@@@std@@6B@ 0042e938     main.obj
 0002:00000974       ??_C@_1DC@POOIKBAO@?$AAI?$AAT?$AAE?$AAR?$AAA?$AAT?$AAO?$AAR?$AA?5?$AAL?$AAI?$AAS?$AAT?$AA?5?$AAC?$AAO?$AAR?$AAR?$AAU?$AAP?$AAT?$AAE?$AAD?$AA?$CB?$AA?$AA@ 0042e974     main.obj
 0002:000009a8       ??_C@_1IE@MNKNPHOP@?$AAc?$AA?3?$AA?2?$AAp?$AAr?$AAo?$AAg?$AAr?$AAa?$AAm?$AA?5?$AAf?$AAi?$AAl?$AAe?$AAs?$AA?2?$AAm?$AAi?$AAc?$AAr?$AAo?$AAs?$AAo?$AAf?$AAt?$AA?5?$AAv?$AAi?$AAs?$AAu?$AAa@ 0042e9a8     main.obj
 0002:00000a2c       ?npos@?$basic_string@DU?$char_traits@D@std@@V?$allocator@D@2@@std@@2IB 0042ea2c     main.obj
 0002:00000a30       ??_C@_1IC@FFBOGIDA@?$AAc?$AA?3?$AA?2?$AAp?$AAr?$AAo?$AAg?$AAr?$AAa?$AAm?$AA?5?$AAf?$AAi?$AAl?$AAe?$AAs?$AA?2?$AAm?$AAi?$AAc?$AAr?$AAo?$AAs?$AAo?$AAf?$AAt?$AA?5?$AAv?$AAi?$AAs?$AAu?$AAa@ 0042ea30     main.obj
 0002:00000ab4       ??_8?$basic_ostream@DU?$char_traits@D@std@@@std@@7B@ 0042eab4     main.obj
 0002:00000abc       ?_Stz@?$fpos@H@std@@0HB    0042eabc     main.obj
 0002:00000ac0       ??_C@_0BA@JFNIOLAK@string?5too?5long?$AA@ 0042eac0     main.obj
 0002:00000ad0       ??_C@_0BI@CFPLBAOH@invalid?5string?5position?$AA@ 0042ead0     main.obj
 0002:00000ae8       ??_C@_0EC@OEHECDDF@c?3?2program?5files?2microsoft?5visua@ 0042eae8     main.obj
 0002:00000b2c       ??_C@_0BF@OOHOMBOF@ios_base?3?3eofbit?5set?$AA@ 0042eb2c     main.obj
 0002:00000b44       ??_C@_0BG@FMKFHCIL@ios_base?3?3failbit?5set?$AA@ 0042eb44     main.obj
 0002:00000b5c       ??_C@_0BF@PHHKMMFD@ios_base?3?3badbit?5set?$AA@ 0042eb5c     main.obj
 0002:00000b74       ??_7failure@ios_base@std@@6B@ 0042eb74     main.obj
 0002:00000b7c       ??_7system_error@std@@6B@  0042eb7c     main.obj
 0002:00000b88       ??_C@_0ED@JEMIKDNL@c?3?2program?5files?2microsoft?5visua@ 0042eb88     main.obj
 0002:00000bcc       ??_C@_1BO@MEPPHOO@?$AA?$CC?$AAo?$AAu?$AAt?$AA?5?$AAo?$AAf?$AA?5?$AAr?$AAa?$AAn?$AAg?$AAe?$AA?$CC?$AA?$AA@ 0042ebcc     main.obj
 0002:00000bf0       ??_C@_1NA@ICLOEHKI@?$AAs?$AAt?$AAd?$AA?3?$AA?3?$AA_?$AAS?$AAt?$AAr?$AAi?$AAn?$AAg?$AA_?$AAc?$AAo?$AAn?$AAs?$AAt?$AA_?$AAi?$AAt?$AAe?$AAr?$AAa?$AAt?$AAo?$AAr?$AA?$DM?$AAc?$AAh?$AAa?$AAr@ 0042ebf0     main.obj
 0002:00000cc0       ??_C@_1FG@IBPIFFN@?$AA?$CC?$AAS?$AAt?$AAa?$AAn?$AAd?$AAa?$AAr?$AAd?$AA?5?$AAC?$AA?$CL?$AA?$CL?$AA?5?$AAL?$AAi?$AAb?$AAr?$AAa?$AAr?$AAi?$AAe?$AAs?$AA?5?$AAO?$AAu?$AAt?$AA?5?$AAo?$AAf?$AA?5?$AAR@ 0042ecc0     main.obj
 0002:00000d18       ??_C@_0CE@OFMIGAMM@Standard?5C?$CL?$CL?5Libraries?5Out?5of?5Ra@ 0042ed18     main.obj
 0002:00000d40       ??_C@_1EG@CNCHLAOB@?$AAs?$AAt?$AAr?$AAi?$AAn?$AAg?$AA?5?$AAi?$AAt?$AAe?$AAr?$AAa?$AAt?$AAo?$AAr?$AA?5?$AAn?$AAo?$AAt?$AA?5?$AAd?$AAe?$AAr?$AAe?$AAf?$AAe?$AAr?$AAe?$AAn?$AAc?$AAa?$AAb@ 0042ed40     main.obj
 0002:00000d88       ??_C@_08EPJLHIJG@bad?5cast?$AA@ 0042ed88     main.obj
 0002:00000d98       ??_C@_0EB@HDBJJKBE@c?3?2program?5files?2microsoft?5visua@ 0042ed98     main.obj
 0002:00000ddc       ??_C@_0BA@ELKIONDK@bad?5locale?5name?$AA@ 0042eddc     main.obj
 0002:00000dec       ??_7?$ctype@D@std@@6B@     0042edec     main.obj
 0002:00000e10       ??_7ctype_base@std@@6B@    0042ee10     main.obj
 0002:00000e18       ??_C@_1IC@OEPKDBLL@?$AAc?$AA?3?$AA?2?$AAp?$AAr?$AAo?$AAg?$AAr?$AAa?$AAm?$AA?5?$AAf?$AAi?$AAl?$AAe?$AAs?$AA?2?$AAm?$AAi?$AAc?$AAr?$AAo?$AAs?$AAo?$AAf?$AAt?$AA?5?$AAv?$AAi?$AAs?$AAu?$AAa@ 0042ee18     main.obj
 0002:00000e9c       ??_C@_1CK@EOPGIILJ@?$AAi?$AAn?$AAv?$AAa?$AAl?$AAi?$AAd?$AA?5?$AAn?$AAu?$AAl?$AAl?$AA?5?$AAp?$AAo?$AAi?$AAn?$AAt?$AAe?$AAr?$AA?$AA@ 0042ee9c     main.obj
 0002:00000ec8       ??_7?$codecvt@DDH@std@@6B@ 0042eec8     main.obj
 0002:00000ee8       ??_7codecvt_base@std@@6B@  0042eee8     main.obj
 0002:00000ef8       ??_C@_1CO@DGLIKNHI@?$AAi?$AAn?$AAv?$AAa?$AAl?$AAi?$AAd?$AA?5?$AAi?$AAt?$AAe?$AAr?$AAa?$AAt?$AAo?$AAr?$AA?5?$AAr?$AAa?$AAn?$AAg?$AAe?$AA?$AA@ 0042eef8     main.obj
 0002:00001140       ?_BADOFF@std@@3_JB         0042f140     libcpmtd:ios.obj
 0002:00001148       ??_C@_0DC@FCEKBFBO@f?3?2dd?2vctools?2crt_bld?2self_x86?2c@ 0042f148     libcpmtd:xmutex.obj
 0002:00001180       ??_7logic_error@std@@6B@   0042f180     libcpmtd:xthrow.obj
 0002:0000118c       ??_7length_error@std@@6B@  0042f18c     libcpmtd:xthrow.obj
 0002:00001198       ??_7out_of_range@std@@6B@  0042f198     libcpmtd:xthrow.obj
 0002:000011a4       ??_7runtime_error@std@@6B@ 0042f1a4     libcpmtd:xthrow.obj
 0002:000011b4       ??_7bad_alloc@std@@6B@     0042f1b4     libcpmtd:xdebug.obj
 0002:000011bc       ??_C@_0P@GHFPNOJB@bad?5allocation?$AA@ 0042f1bc     libcpmtd:xdebug.obj
 0002:000011cc       ??_C@_0DD@IMKCHGBE@f?3?2dd?2vctools?2crt_bld?2self_x86?2c@ 0042f1cc     libcpmtd:locale0.obj
 0002:00001200       ??_C@_01NBENCBCI@?$CK?$AA@ 0042f200     libcpmtd:locale0.obj
 0002:00001208       ??_7_Locimp@locale@std@@6B@ 0042f208     libcpmtd:locale0.obj
 0002:00001210       ??_7facet@locale@std@@6B@  0042f210     libcpmtd:locale0.obj
 0002:00001214       ??_C@_01GFHCPBMG@C?$AA@    0042f214     libcpmtd:locale0.obj
 0002:00001216       ??_C@_00CNPNBAHC@?$AA@     0042f216     libcpmtd:locale0.obj
 0002:00001218       ??_C@_0DA@CHOJEIKD@f?3?2dd?2vctools?2crt_bld?2self_x86?2c@ 0042f218     libcpmtd:locale0.obj
 0002:00001248       ??_C@_07DCLBNMLN@generic?$AA@ 0042f248     libcpmtd:syserror.obj
 0002:00001254       ??_7_Generic_error_category@std@@6B@ 0042f254     libcpmtd:syserror.obj
 0002:00001270       ??_7error_category@std@@6B@ 0042f270     libcpmtd:syserror.obj
 0002:00001288       ??_C@_08LLGCOLLL@iostream?$AA@ 0042f288     libcpmtd:syserror.obj
 0002:00001298       ??_7_Iostream_error_category@std@@6B@ 0042f298     libcpmtd:syserror.obj
 0002:000012b0       ??_C@_0BG@PADBLCHM@iostream?5stream?5error?$AA@ 0042f2b0     libcpmtd:syserror.obj
 0002:000012c8       ??_C@_06FHFOAHML@system?$AA@ 0042f2c8     libcpmtd:syserror.obj
 0002:000012d4       ??_7_System_error_category@std@@6B@ 0042f2d4     libcpmtd:syserror.obj
 0002:000012ec       ??_C@_0DC@CFILDBAI@f?3?2dd?2vctools?2crt_bld?2self_x86?2c@ 0042f2ec     libcpmtd:_tolower.obj
 0002:00001320       ??_C@_1O@GKDHFACN@?$AAp?$AAr?$AAi?$AAn?$AAt?$AAf?$AA?$AA@ 0042f320     LIBCMTD:printf.obj
 0002:00001330       ??_C@_1GA@LHEGHOAF@?$AAf?$AA?3?$AA?2?$AAd?$AAd?$AA?2?$AAv?$AAc?$AAt?$AAo?$AAo?$AAl?$AAs?$AA?2?$AAc?$AAr?$AAt?$AA_?$AAb?$AAl?$AAd?$AA?2?$AAs?$AAe?$AAl?$AAf?$AA_?$AAx?$AA8?$AA6?$AA?2?$AAc@ 0042f330     LIBCMTD:printf.obj
 0002:00001390       ??_C@_1CC@MGIEJOME@?$AA?$CI?$AAf?$AAo?$AAr?$AAm?$AAa?$AAt?$AA?5?$AA?$CB?$AA?$DN?$AA?5?$AAN?$AAU?$AAL?$AAL?$AA?$CJ?$AA?$AA@ 0042f390     LIBCMTD:printf.obj
 0002:000013b4       ??_C@_0P@MIGLKIOC@CorExitProcess?$AA@ 0042f3b4     LIBCMTD:crt0dat.obj
 0002:000013c4       ??_C@_1BI@BGOHAHKC@?$AAm?$AAs?$AAc?$AAo?$AAr?$AAe?$AAe?$AA?4?$AAd?$AAl?$AAl?$AA?$AA@ 0042f3c4     LIBCMTD:crt0dat.obj
 0002:000013e0       ??_C@_1GE@BDAODJCD@?$AAf?$AA?3?$AA?2?$AAd?$AAd?$AA?2?$AAv?$AAc?$AAt?$AAo?$AAo?$AAl?$AAs?$AA?2?$AAc?$AAr?$AAt?$AA_?$AAb?$AAl?$AAd?$AA?2?$AAs?$AAe?$AAl?$AAf?$AA_?$AAx?$AA8?$AA6?$AA?2?$AAc@ 0042f3e0     LIBCMTD:dbgdel.obj
 0002:00001448       ??_C@_1EO@LHDAJOCM@?$AA_?$AAB?$AAL?$AAO?$AAC?$AAK?$AA_?$AAT?$AAY?$AAP?$AAE?$AA_?$AAI?$AAS?$AA_?$AAV?$AAA?$AAL?$AAI?$AAD?$AA?$CI?$AAp?$AAH?$AAe?$AAa?$AAd?$AA?9?$AA?$DO?$AAn?$AAB?$AAl?$AAo@ 0042f448     LIBCMTD:dbgdel.obj
 0002:00001498       ??_C@_0CP@BNKDODJJ@f?3?2dd?2vctools?2crt_bld?2self_x86?2c@ 0042f498     LIBCMTD:_file.obj
 0002:000014c8       ??_C@_1O@KLNKIMAP@?$AAf?$AAw?$AAr?$AAi?$AAt?$AAe?$AA?$AA@ 0042f4c8     LIBCMTD:fwrite.obj
 0002:000014d8       ??_C@_1GA@DOFNKKGD@?$AAf?$AA?3?$AA?2?$AAd?$AAd?$AA?2?$AAv?$AAc?$AAt?$AAo?$AAo?$AAl?$AAs?$AA?2?$AAc?$AAr?$AAt?$AA_?$AAb?$AAl?$AAd?$AA?2?$AAs?$AAe?$AAl?$AAf?$AA_?$AAx?$AA8?$AA6?$AA?2?$AAc@ 0042f4d8     LIBCMTD:fwrite.obj
 0002:00001538       ??_C@_1CC@FADMNIL@?$AA?$CI?$AAs?$AAt?$AAr?$AAe?$AAa?$AAm?$AA?5?$AA?$CB?$AA?$DN?$AA?5?$AAN?$AAU?$AAL?$AAL?$AA?$CJ?$AA?$AA@ 0042f538     LIBCMTD:fwrite.obj
 0002:00001560       ??_C@_1LG@DCNDJCHK@?$AA?$CI?$AA?$CC?$AAI?$AAn?$AAc?$AAo?$AAn?$AAs?$AAi?$AAs?$AAt?$AAe?$AAn?$AAt?$AA?5?$AAS?$AAt?$AAr?$AAe?$AAa?$AAm?$AA?5?$AAC?$AAo?$AAu?$AAn?$AAt?$AA?4?$AA?5?$AAF?$AAl?$AAu@ 0042f560     LIBCMTD:fwrite.obj
 0002:00001618       ??_C@_1DC@FHEPNAPF@?$AAn?$AAu?$AAm?$AA?5?$AA?$DM?$AA?$DN?$AA?5?$AA?$CI?$AAS?$AAI?$AAZ?$AAE?$AA_?$AAM?$AAA?$AAX?$AA?5?$AA?1?$AA?5?$AAs?$AAi?$AAz?$AAe?$AA?$CJ?$AA?$AA@ 0042f618     LIBCMTD:fwrite.obj
 0002:0000164c       ??_C@_1CC@CGFEEBMC@?$AA?$CI?$AAb?$AAu?$AAf?$AAf?$AAe?$AAr?$AA?5?$AA?$CB?$AA?$DN?$AA?5?$AAN?$AAU?$AAL?$AAL?$AA?$CJ?$AA?$AA@ 0042f64c     LIBCMTD:fwrite.obj
 0002:00001670       ??_C@_1BO@JGPKCBCE@?$AA_?$AAf?$AAw?$AAr?$AAi?$AAt?$AAe?$AA_?$AAn?$AAo?$AAl?$AAo?$AAc?$AAk?$AA?$AA@ 0042f670     LIBCMTD:fwrite.obj
 0002:00001690       ??_C@_1BAA@ODEGEDCK@?$AA?$CI?$AA?5?$AA?$CI?$AA_?$AAS?$AAt?$AAr?$AAe?$AAa?$AAm?$AA?9?$AA?$DO?$AA_?$AAf?$AAl?$AAa?$AAg?$AA?5?$AA?$CG?$AA?5?$AA_?$AAI?$AAO?$AAS?$AAT?$AAR?$AAG?$AA?$CJ?$AA?5?$AA?$HM?$AA?$HM?$AA?5@ 0042f690     LIBCMTD:fputc.obj
 0002:00001790       ??_C@_1M@OIJMPNCO@?$AAf?$AAp?$AAu?$AAt?$AAc?$AA?$AA@ 0042f790     LIBCMTD:fputc.obj
 0002:000017a0       ??_C@_1FO@CJOPDBGD@?$AAf?$AA?3?$AA?2?$AAd?$AAd?$AA?2?$AAv?$AAc?$AAt?$AAo?$AAo?$AAl?$AAs?$AA?2?$AAc?$AAr?$AAt?$AA_?$AAb?$AAl?$AAd?$AA?2?$AAs?$AAe?$AAl?$AAf?$AA_?$AAx?$AA8?$AA6?$AA?2?$AAc@ 0042f7a0     LIBCMTD:fputc.obj
 0002:00001800       ??_C@_1BM@JMKHIAHP@?$AA?$CI?$AAs?$AAt?$AAr?$AA?5?$AA?$CB?$AA?$DN?$AA?5?$AAN?$AAU?$AAL?$AAL?$AA?$CJ?$AA?$AA@ 0042f800     LIBCMTD:fputc.obj
 0002:0000181c       ??_C@_1O@JDPLECOK@?$AAu?$AAn?$AAg?$AAe?$AAt?$AAc?$AA?$AA@ 0042f81c     LIBCMTD:ungetc.obj
 0002:00001830       ??_C@_1GA@OAFAANFO@?$AAf?$AA?3?$AA?2?$AAd?$AAd?$AA?2?$AAv?$AAc?$AAt?$AAo?$AAo?$AAl?$AAs?$AA?2?$AAc?$AAr?$AAt?$AA_?$AAb?$AAl?$AAd?$AA?2?$AAs?$AAe?$AAl?$AAf?$AA_?$AAx?$AA8?$AA6?$AA?2?$AAc@ 0042f830     LIBCMTD:ungetc.obj
 0002:00001890       ??_C@_1BO@OLMLKKEA@?$AA_?$AAu?$AAn?$AAg?$AAe?$AAt?$AAc?$AA_?$AAn?$AAo?$AAl?$AAo?$AAc?$AAk?$AA?$AA@ 0042f890     LIBCMTD:ungetc.obj
 0002:000018b0       ??_C@_1HC@OEJDDIIH@?$AAf?$AA?3?$AA?2?$AAd?$AAd?$AA?2?$AAv?$AAc?$AAt?$AAo?$AAo?$AAl?$AAs?$AA?2?$AAc?$AAr?$AAt?$AA_?$AAb?$AAl?$AAd?$AA?2?$AAs?$AAe?$AAl?$AAf?$AA_?$AAx?$AA8?$AA6?$AA?2?$AAc@ 0042f8b0     LIBCMTD:ungetc.obj
 0002:00001924       ??_C@_1CK@DDKKOLAN@?$AAs?$AAi?$AAz?$AAe?$AAI?$AAn?$AAB?$AAy?$AAt?$AAe?$AAs?$AA?5?$AA?$DO?$AA?$DN?$AA?5?$AAc?$AAo?$AAu?$AAn?$AAt?$AA?$AA@ 0042f924     LIBCMTD:memcpy_s.obj
 0002:00001950       ??_C@_1BI@DCHLDCPP@?$AAs?$AAr?$AAc?$AA?5?$AA?$CB?$AA?$DN?$AA?5?$AAN?$AAU?$AAL?$AAL?$AA?$AA@ 0042f950     LIBCMTD:memcpy_s.obj
 0002:00001968       ??_C@_1BC@GKHDJMGB@?$AAm?$AAe?$AAm?$AAc?$AAp?$AAy?$AA_?$AAs?$AA?$AA@ 0042f968     LIBCMTD:memcpy_s.obj
 0002:00001980       ??_C@_1GE@NEOPGGBM@?$AAf?$AA?3?$AA?2?$AAd?$AAd?$AA?2?$AAv?$AAc?$AAt?$AAo?$AAo?$AAl?$AAs?$AA?2?$AAc?$AAr?$AAt?$AA_?$AAb?$AAl?$AAd?$AA?2?$AAs?$AAe?$AAl?$AAf?$AA_?$AAx?$AA8?$AA6?$AA?2?$AAc@ 0042f980     LIBCMTD:memcpy_s.obj
 0002:000019e4       ??_C@_1BI@GKKCBDMD@?$AAd?$AAs?$AAt?$AA?5?$AA?$CB?$AA?$DN?$AA?5?$AAN?$AAU?$AAL?$AAL?$AA?$AA@ 0042f9e4     LIBCMTD:memcpy_s.obj
 0002:000019fc       ??_C@_1M@FBFFFGJE@?$AAf?$AAg?$AAe?$AAt?$AAc?$AA?$AA@ 0042f9fc     LIBCMTD:fgetc.obj
 0002:00001a08       ??_C@_1FO@CGIIEKDD@?$AAf?$AA?3?$AA?2?$AAd?$AAd?$AA?2?$AAv?$AAc?$AAt?$AAo?$AAo?$AAl?$AAs?$AA?2?$AAc?$AAr?$AAt?$AA_?$AAb?$AAl?$AAd?$AA?2?$AAs?$AAe?$AAl?$AAf?$AA_?$AAx?$AA8?$AA6?$AA?2?$AAc@ 0042fa08     LIBCMTD:fgetc.obj
 0002:00001a68       ??_C@_1BM@IMKAODOM@?$AA?$CI?$AAp?$AAo?$AAs?$AA?5?$AA?$CB?$AA?$DN?$AA?5?$AAN?$AAU?$AAL?$AAL?$AA?$CJ?$AA?$AA@ 0042fa68     LIBCMTD:fgetpos.obj
 0002:00001a84       ??_C@_1BA@PDKPGILH@?$AAf?$AAg?$AAe?$AAt?$AAp?$AAo?$AAs?$AA?$AA@ 0042fa84     LIBCMTD:fgetpos.obj
 0002:00001a98       ??_C@_1GC@NMLEJGPF@?$AAf?$AA?3?$AA?2?$AAd?$AAd?$AA?2?$AAv?$AAc?$AAt?$AAo?$AAo?$AAl?$AAs?$AA?2?$AAc?$AAr?$AAt?$AA_?$AAb?$AAl?$AAd?$AA?2?$AAs?$AAe?$AAl?$AAf?$AA_?$AAx?$AA8?$AA6?$AA?2?$AAc@ 0042fa98     LIBCMTD:fgetpos.obj
 0002:00001b00       ??_C@_1IO@PMHBOLJK@?$AA?$CI?$AA?$CI?$AAw?$AAh?$AAe?$AAn?$AAc?$AAe?$AA?5?$AA?$DN?$AA?$DN?$AA?5?$AAS?$AAE?$AAE?$AAK?$AA_?$AAS?$AAE?$AAT?$AA?$CJ?$AA?5?$AA?$HM?$AA?$HM?$AA?5?$AA?$CI?$AAw?$AAh?$AAe?$AAn?$AAc?$AAe@ 0042fb00     LIBCMTD:fseeki64.obj
 0002:00001b90       ??_C@_1BE@LFNEFJFD@?$AA_?$AAf?$AAs?$AAe?$AAe?$AAk?$AAi?$AA6?$AA4?$AA?$AA@ 0042fb90     LIBCMTD:fseeki64.obj
 0002:00001ba8       ??_C@_1GE@FPMJBCHH@?$AAf?$AA?3?$AA?2?$AAd?$AAd?$AA?2?$AAv?$AAc?$AAt?$AAo?$AAo?$AAl?$AAs?$AA?2?$AAc?$AAr?$AAt?$AA_?$AAb?$AAl?$AAd?$AA?2?$AAs?$AAe?$AAl?$AAf?$AA_?$AAx?$AA8?$AA6?$AA?2?$AAc@ 0042fba8     LIBCMTD:fseeki64.obj
 0002:00001c0c       ??_C@_1BI@MFCLPIBM@?$AAs?$AAt?$AAr?$AA?5?$AA?$CB?$AA?$DN?$AA?5?$AAN?$AAU?$AAL?$AAL?$AA?$AA@ 0042fc0c     LIBCMTD:fseeki64.obj
 0002:00001c24       ??_C@_1BA@IMLBNLMA@?$AAf?$AAs?$AAe?$AAt?$AAp?$AAo?$AAs?$AA?$AA@ 0042fc24     LIBCMTD:fsetpos.obj
 0002:00001c38       ??_C@_1GC@PJLPBNOL@?$AAf?$AA?3?$AA?2?$AAd?$AAd?$AA?2?$AAv?$AAc?$AAt?$AAo?$AAo?$AAl?$AAs?$AA?2?$AAc?$AAr?$AAt?$AA_?$AAb?$AAl?$AAd?$AA?2?$AAs?$AAe?$AAl?$AAf?$AA_?$AAx?$AA8?$AA6?$AA?2?$AAc@ 0042fc38     LIBCMTD:fsetpos.obj
 0002:00001c9c       ??_C@_0DB@MIGHMKAN@f?3?2dd?2vctools?2crt_bld?2self_x86?2c@ 0042fc9c     LIBCMTD:setvbuf.obj
 0002:00001cd0       ??_C@_1EG@IJNJIDNB@?$AA?$CI?$AA?$CI?$AA2?$AA?5?$AA?$DM?$AA?$DN?$AA?5?$AAs?$AAi?$AAz?$AAe?$AA?$CJ?$AA?5?$AA?$CG?$AA?$CG?$AA?5?$AA?$CI?$AAs?$AAi?$AAz?$AAe?$AA?5?$AA?$DM?$AA?$DN?$AA?5?$AAI?$AAN?$AAT?$AA_?$AAM?$AAA?$AAX@ 0042fcd0     LIBCMTD:setvbuf.obj
 0002:00001d18       ??_C@_1HC@CBFEDAGG@?$AA?$CI?$AAt?$AAy?$AAp?$AAe?$AA?5?$AA?$DN?$AA?$DN?$AA?5?$AA_?$AAI?$AAO?$AAN?$AAB?$AAF?$AA?$CJ?$AA?5?$AA?$HM?$AA?$HM?$AA?5?$AA?$CI?$AAt?$AAy?$AAp?$AAe?$AA?5?$AA?$DN?$AA?$DN?$AA?5?$AA_?$AAI?$AAO@ 0042fd18     LIBCMTD:setvbuf.obj
 0002:00001d8c       ??_C@_1BA@OGODIODK@?$AAs?$AAe?$AAt?$AAv?$AAb?$AAu?$AAf?$AA?$AA@ 0042fd8c     LIBCMTD:setvbuf.obj
 0002:00001da0       ??_C@_1GC@FPPJLAOD@?$AAf?$AA?3?$AA?2?$AAd?$AAd?$AA?2?$AAv?$AAc?$AAt?$AAo?$AAo?$AAl?$AAs?$AA?2?$AAc?$AAr?$AAt?$AA_?$AAb?$AAl?$AAd?$AA?2?$AAs?$AAe?$AAl?$AAf?$AA_?$AAx?$AA8?$AA6?$AA?2?$AAc@ 0042fda0     LIBCMTD:setvbuf.obj
 0002:00001e04       ??_C@_1O@EGMJNCOI@?$AAf?$AAc?$AAl?$AAo?$AAs?$AAe?$AA?$AA@ 0042fe04     LIBCMTD:fclose.obj
 0002:00001e18       ??_C@_1GA@KMIDAPAP@?$AAf?$AA?3?$AA?2?$AAd?$AAd?$AA?2?$AAv?$AAc?$AAt?$AAo?$AAo?$AAl?$AAs?$AA?2?$AAc?$AAr?$AAt?$AA_?$AAb?$AAl?$AAd?$AA?2?$AAs?$AAe?$AAl?$AAf?$AA_?$AAx?$AA8?$AA6?$AA?2?$AAc@ 0042fe18     LIBCMTD:fclose.obj
 0002:00001e78       ??_C@_1BO@JINCABEC@?$AA_?$AAf?$AAc?$AAl?$AAo?$AAs?$AAe?$AA_?$AAn?$AAo?$AAl?$AAo?$AAc?$AAk?$AA?$AA@ 0042fe78     LIBCMTD:fclose.obj
 0002:00001ebc       ??_7type_info@@6B@         0042febc     LIBCMTD:typinfo.obj
 0002:00001ec4       ??_7exception@std@@6B@     0042fec4     LIBCMTD:stdexcpt.obj
 0002:00001ecc       ??_C@_0BC@EOODALEL@Unknown?5exception?$AA@ 0042fecc     LIBCMTD:stdexcpt.obj
 0002:00001ee4       ??_7bad_cast@std@@6B@      0042fee4     LIBCMTD:stdexcpt.obj
 0002:00001eec       ??_C@_17LGKOMLJ@?$AA?4?$AA?4?$AA?4?$AA?$AA@ 0042feec     LIBCMTD:dbgrptw.obj
 0002:00001ef4       ??_C@_1CC@CGHMNGDG@?$AAA?$AAs?$AAs?$AAe?$AAr?$AAt?$AAi?$AAo?$AAn?$AA?5?$AAF?$AAa?$AAi?$AAl?$AAe?$AAd?$AA?$AA@ 0042fef4     LIBCMTD:dbgrptw.obj
 0002:00001f18       ??_C@_1M@ILHOPKA@?$AAE?$AAr?$AAr?$AAo?$AAr?$AA?$AA@ 0042ff18     LIBCMTD:dbgrptw.obj
 0002:00001f24       ??_C@_1BA@GLMCNLEM@?$AAW?$AAa?$AAr?$AAn?$AAi?$AAn?$AAg?$AA?$AA@ 0042ff24     LIBCMTD:dbgrptw.obj
 0002:00001f40       ??_C@_1GA@IBJGKIFE@?$AAf?$AA?3?$AA?2?$AAd?$AAd?$AA?2?$AAv?$AAc?$AAt?$AAo?$AAo?$AAl?$AAs?$AA?2?$AAc?$AAr?$AAt?$AA_?$AAb?$AAl?$AAd?$AA?2?$AAs?$AAe?$AAl?$AAf?$AA_?$AAx?$AA8?$AA6?$AA?2?$AAc@ 0042ff40     LIBCMTD:dbgrptw.obj
 0002:00001fa0       ??_C@_1EG@PEOEAKBB@?$AAM?$AAi?$AAc?$AAr?$AAo?$AAs?$AAo?$AAf?$AAt?$AA?5?$AAV?$AAi?$AAs?$AAu?$AAa?$AAl?$AA?5?$AAC?$AA?$CL?$AA?$CL?$AA?5?$AAD?$AAe?$AAb?$AAu?$AAg?$AA?5?$AAL?$AAi?$AAb?$AAr?$AAa@ 0042ffa0     LIBCMTD:dbgrptw.obj
 0002:00001fe8       ??_C@_1FG@BBOLDHGF@?$AA_?$AAC?$AAr?$AAt?$AAD?$AAb?$AAg?$AAR?$AAe?$AAp?$AAo?$AAr?$AAt?$AA?3?$AA?5?$AAS?$AAt?$AAr?$AAi?$AAn?$AAg?$AA?5?$AAt?$AAo?$AAo?$AA?5?$AAl?$AAo?$AAn?$AAg?$AA?5?$AAo@ 0042ffe8     LIBCMTD:dbgrptw.obj
 0002:00002040       ??_C@_1JI@EACPGHID@?$AAw?$AAc?$AAs?$AAc?$AAp?$AAy?$AA_?$AAs?$AA?$CI?$AAs?$AAz?$AAO?$AAu?$AAt?$AAM?$AAe?$AAs?$AAs?$AAa?$AAg?$AAe?$AA?0?$AA?5?$AA4?$AA0?$AA9?$AA6?$AA?0?$AA?5?$AAL?$AA?$CC?$AA_@ 00430040     LIBCMTD:dbgrptw.obj
 0002:000020d8       ??_C@_1BI@KALLJECN@?$AA?$CI?$AA?$CK?$AA_?$AAe?$AAr?$AAr?$AAn?$AAo?$AA?$CI?$AA?$CJ?$AA?$CJ?$AA?$AA@ 004300d8     LIBCMTD:dbgrptw.obj
 0002:000020f0       ??_C@_1KK@MEFMPOLM@?$AAD?$AAe?$AAb?$AAu?$AAg?$AA?5?$AA?$CF?$AAs?$AA?$CB?$AA?6?$AA?6?$AAP?$AAr?$AAo?$AAg?$AAr?$AAa?$AAm?$AA?3?$AA?5?$AA?$CF?$AAs?$AA?$CF?$AAs?$AA?$CF?$AAs?$AA?$CF?$AAs?$AA?$CF?$AAs?$AA?$CF?$AAs@ 004300f0     LIBCMTD:dbgrptw.obj
 0002:0000219c       ??_C@_1BE@CGCJKGHI@?$AA?6?$AAM?$AAo?$AAd?$AAu?$AAl?$AAe?$AA?3?$AA?5?$AA?$AA@ 0043019c     LIBCMTD:dbgrptw.obj
 0002:000021b0       ??_C@_1BA@LNHECFIM@?$AA?6?$AAF?$AAi?$AAl?$AAe?$AA?3?$AA?5?$AA?$AA@ 004301b0     LIBCMTD:dbgrptw.obj
 0002:000021c0       ??_C@_1BA@GLLGCPCK@?$AA?6?$AAL?$AAi?$AAn?$AAe?$AA?3?$AA?5?$AA?$AA@ 004301c0     LIBCMTD:dbgrptw.obj
 0002:000021d0       ??_C@_15IABLJNFO@?$AA?6?$AA?6?$AA?$AA@ 004301d0     LIBCMTD:dbgrptw.obj
 0002:000021d8       ??_C@_1BK@PEDCIPMA@?$AAE?$AAx?$AAp?$AAr?$AAe?$AAs?$AAs?$AAi?$AAo?$AAn?$AA?3?$AA?5?$AA?$AA@ 004301d8     LIBCMTD:dbgrptw.obj
 0002:000021f4       ??_C@_11LOCGONAA@?$AA?$AA@ 004301f4     LIBCMTD:dbgrptw.obj
 0002:000021f8       ??_C@_1OG@PMPPFHAF@?$AA?6?$AA?6?$AAF?$AAo?$AAr?$AA?5?$AAi?$AAn?$AAf?$AAo?$AAr?$AAm?$AAa?$AAt?$AAi?$AAo?$AAn?$AA?5?$AAo?$AAn?$AA?5?$AAh?$AAo?$AAw?$AA?5?$AAy?$AAo?$AAu?$AAr?$AA?5?$AAp?$AAr@ 004301f8     LIBCMTD:dbgrptw.obj
 0002:000022e0       ??_C@_1NO@LECLLHOL@?$AAm?$AAe?$AAm?$AAc?$AAp?$AAy?$AA_?$AAs?$AA?$CI?$AAs?$AAz?$AAS?$AAh?$AAo?$AAr?$AAt?$AAP?$AAr?$AAo?$AAg?$AAN?$AAa?$AAm?$AAe?$AA?0?$AA?5?$AAs?$AAi?$AAz?$AAe?$AAo?$AAf@ 004302e0     LIBCMTD:dbgrptw.obj
 0002:000023c0       ??_C@_1CO@EAEJAADC@?$AA?$DM?$AAp?$AAr?$AAo?$AAg?$AAr?$AAa?$AAm?$AA?5?$AAn?$AAa?$AAm?$AAe?$AA?5?$AAu?$AAn?$AAk?$AAn?$AAo?$AAw?$AAn?$AA?$DO?$AA?$AA@ 004303c0     LIBCMTD:dbgrptw.obj
 0002:000023f0       ??_C@_1GI@DEDNNLCI@?$AAw?$AAc?$AAs?$AAc?$AAp?$AAy?$AA_?$AAs?$AA?$CI?$AAs?$AAz?$AAE?$AAx?$AAe?$AAN?$AAa?$AAm?$AAe?$AA?0?$AA?5?$AA2?$AA6?$AA0?$AA?0?$AA?5?$AAL?$AA?$CC?$AA?$DM?$AAp?$AAr?$AAo?$AAg@ 004303f0     LIBCMTD:dbgrptw.obj
 0002:00002458       ??_C@_1CI@PGJIFDEK@?$AA_?$AA_?$AAc?$AAr?$AAt?$AAM?$AAe?$AAs?$AAs?$AAa?$AAg?$AAe?$AAW?$AAi?$AAn?$AAd?$AAo?$AAw?$AAW?$AA?$AA@ 00430458     LIBCMTD:dbgrptw.obj
 0002:00002480       ??_C@_06PJIGMIJB@Client?$AA@ 00430480     LIBCMTD:dbgheap.obj
 0002:00002488       ??_C@_06KMEJCCGM@Ignore?$AA@ 00430488     LIBCMTD:dbgheap.obj
 0002:00002490       ??_C@_03OGPFLFLO@CRT?$AA@  00430490     LIBCMTD:dbgheap.obj
 0002:00002494       ??_C@_06EFAGIKOH@Normal?$AA@ 00430494     LIBCMTD:dbgheap.obj
 0002:0000249c       ??_C@_04HJMOFLDF@Free?$AA@ 0043049c     LIBCMTD:dbgheap.obj
 0002:000024b8       ??_C@_0DC@JEMAGEKG@Error?3?5memory?5allocation?3?5bad?5me@ 004304b8     LIBCMTD:dbgheap.obj
 0002:000024ec       ??_C@_0CF@BICKFLAF@Invalid?5allocation?5size?3?5?$CFIu?5byt@ 004304ec     LIBCMTD:dbgheap.obj
 0002:00002514       ??_C@_02DKCKIIND@?$CFs?$AA@ 00430514     LIBCMTD:dbgheap.obj
 0002:00002518       ??_C@_0CB@CCLOLAHO@Client?5hook?5allocation?5failure?4?6@ 00430518     LIBCMTD:dbgheap.obj
 0002:0000253c       ??_C@_0DF@BBEGIFEK@Client?5hook?5allocation?5failure?5a@ 0043053c     LIBCMTD:dbgheap.obj
 0002:00002578       ??_C@_1GC@DNJKKEAA@?$AAf?$AA?3?$AA?2?$AAd?$AAd?$AA?2?$AAv?$AAc?$AAt?$AAo?$AAo?$AAl?$AAs?$AA?2?$AAc?$AAr?$AAt?$AA_?$AAb?$AAl?$AAd?$AA?2?$AAs?$AAe?$AAl?$AAf?$AA_?$AAx?$AA8?$AA6?$AA?2?$AAc@ 00430578     LIBCMTD:dbgheap.obj
 0002:000025dc       ??_C@_1CE@LJFEPPMP@?$AA_?$AAC?$AAr?$AAt?$AAC?$AAh?$AAe?$AAc?$AAk?$AAM?$AAe?$AAm?$AAo?$AAr?$AAy?$AA?$CI?$AA?$CJ?$AA?$AA@ 004305dc     LIBCMTD:dbgheap.obj
 0002:00002600       ??_C@_1DE@KOOKLFBB@?$AA_?$AAp?$AAF?$AAi?$AAr?$AAs?$AAt?$AAB?$AAl?$AAo?$AAc?$AAk?$AA?5?$AA?$DN?$AA?$DN?$AA?5?$AAp?$AAO?$AAl?$AAd?$AAB?$AAl?$AAo?$AAc?$AAk?$AA?$AA@ 00430600     LIBCMTD:dbgheap.obj
 0002:00002634       ??_C@_1DC@GEFKNOOL@?$AA_?$AAp?$AAL?$AAa?$AAs?$AAt?$AAB?$AAl?$AAo?$AAc?$AAk?$AA?5?$AA?$DN?$AA?$DN?$AA?5?$AAp?$AAO?$AAl?$AAd?$AAB?$AAl?$AAo?$AAc?$AAk?$AA?$AA@ 00430634     LIBCMTD:dbgheap.obj
 0002:00002668       ??_C@_1GE@PCKLOLAO@?$AAf?$AAR?$AAe?$AAa?$AAl?$AAl?$AAo?$AAc?$AA?5?$AA?$HM?$AA?$HM?$AA?5?$AA?$CI?$AA?$CB?$AAf?$AAR?$AAe?$AAa?$AAl?$AAl?$AAo?$AAc?$AA?5?$AA?$CG?$AA?$CG?$AA?5?$AAp?$AAN?$AAe?$AAw?$AAB?$AAl@ 00430668     LIBCMTD:dbgheap.obj
 0002:000026cc       ??_C@_0DA@HFBKENN@Error?3?5possible?5heap?5corruption?5@ 004306cc     LIBCMTD:dbgheap.obj
 0002:00002700       ??_C@_1IK@DCPKDGNH@?$AAp?$AAO?$AAl?$AAd?$AAB?$AAl?$AAo?$AAc?$AAk?$AA?9?$AA?$DO?$AAn?$AAL?$AAi?$AAn?$AAe?$AA?5?$AA?$DN?$AA?$DN?$AA?5?$AAI?$AAG?$AAN?$AAO?$AAR?$AAE?$AA_?$AAL?$AAI?$AAN?$AAE?$AA?5@ 00430700     LIBCMTD:dbgheap.obj
 0002:00002790       ??_C@_1EE@GFOPCECE@?$AA_?$AAC?$AAr?$AAt?$AAI?$AAs?$AAV?$AAa?$AAl?$AAi?$AAd?$AAH?$AAe?$AAa?$AAp?$AAP?$AAo?$AAi?$AAn?$AAt?$AAe?$AAr?$AA?$CI?$AAp?$AAU?$AAs?$AAe?$AAr?$AAD?$AAa?$AAt?$AAa@ 00430790     LIBCMTD:dbgheap.obj
 0002:000027d8       ??_C@_0EM@LGFLMAGJ@The?5Block?5at?50x?$CFp?5was?5allocated?5@ 004307d8     LIBCMTD:dbgheap.obj
 0002:00002828       ??_C@_0FA@EFEIGJKG@Error?3?5memory?5allocation?3?5bad?5me@ 00430828     LIBCMTD:dbgheap.obj
 0002:00002878       ??_C@_0ED@GPCPBAGP@Invalid?5allocation?5size?3?5?$CFIu?5byt@ 00430878     LIBCMTD:dbgheap.obj
 0002:000028bc       ??_C@_0CE@DOFMDOL@Client?5hook?5re?9allocation?5failur@ 004308bc     LIBCMTD:dbgheap.obj
 0002:000028e0       ??_C@_0DI@KKJPDPGM@Client?5hook?5re?9allocation?5failur@ 004308e0     LIBCMTD:dbgheap.obj
 0002:00002918       ??_C@_1CE@CJACEFBA@?$AAp?$AAU?$AAs?$AAe?$AAr?$AAD?$AAa?$AAt?$AAa?$AA?5?$AA?$CB?$AA?$DN?$AA?5?$AAN?$AAU?$AAL?$AAL?$AA?$AA@ 00430918     LIBCMTD:dbgheap.obj
 0002:0000293c       ??_C@_1CM@MMAADDMD@?$AA_?$AAp?$AAF?$AAi?$AAr?$AAs?$AAt?$AAB?$AAl?$AAo?$AAc?$AAk?$AA?5?$AA?$DN?$AA?$DN?$AA?5?$AAp?$AAH?$AAe?$AAa?$AAd?$AA?$AA@ 0043093c     LIBCMTD:dbgheap.obj
 0002:00002968       ??_C@_1CK@DMAGEMBG@?$AA_?$AAp?$AAL?$AAa?$AAs?$AAt?$AAB?$AAl?$AAo?$AAc?$AAk?$AA?5?$AA?$DN?$AA?$DN?$AA?5?$AAp?$AAH?$AAe?$AAa?$AAd?$AA?$AA@ 00430968     LIBCMTD:dbgheap.obj
 0002:00002994       ??_C@_1DM@ODCJIDCP@?$AAp?$AAH?$AAe?$AAa?$AAd?$AA?9?$AA?$DO?$AAn?$AAB?$AAl?$AAo?$AAc?$AAk?$AAU?$AAs?$AAe?$AA?5?$AA?$DN?$AA?$DN?$AA?5?$AAn?$AAB?$AAl?$AAo?$AAc?$AAk?$AAU?$AAs?$AAe?$AA?$AA@ 00430994     LIBCMTD:dbgheap.obj
 0002:000029d0       ??_C@_1HK@HPCBMDFG@?$AAp?$AAH?$AAe?$AAa?$AAd?$AA?9?$AA?$DO?$AAn?$AAL?$AAi?$AAn?$AAe?$AA?5?$AA?$DN?$AA?$DN?$AA?5?$AAI?$AAG?$AAN?$AAO?$AAR?$AAE?$AA_?$AAL?$AAI?$AAN?$AAE?$AA?5?$AA?$CG?$AA?$CG?$AA?5?$AAp@ 004309d0     LIBCMTD:dbgheap.obj
 0002:00002a50       ??_C@_0IG@LEMBDCJK@HEAP?5CORRUPTION?5DETECTED?3?5after?5@ 00430a50     LIBCMTD:dbgheap.obj
 0002:00002ad8       ??_C@_0KE@MBMNHHHN@HEAP?5CORRUPTION?5DETECTED?3?5after?5@ 00430ad8     LIBCMTD:dbgheap.obj
 0002:00002b80       ??_C@_0IK@PJCGLBOB@HEAP?5CORRUPTION?5DETECTED?3?5before@ 00430b80     LIBCMTD:dbgheap.obj
 0002:00002c10       ??_C@_0KI@JGFOHMEB@HEAP?5CORRUPTION?5DETECTED?3?5before@ 00430c10     LIBCMTD:dbgheap.obj
 0002:00002cb8       ??_C@_0BL@KEIPLFAC@Client?5hook?5free?5failure?4?6?$AA@ 00430cb8     LIBCMTD:dbgheap.obj
 0002:00002cd8       ??_C@_0EJ@HEIBCIMJ@The?5Block?5at?50x?$CFp?5was?5allocated?5@ 00430cd8     LIBCMTD:dbgheap.obj
 0002:00002d24       ??_C@_1BG@MBKOGDLD@?$AA_?$AAm?$AAs?$AAi?$AAz?$AAe?$AA_?$AAd?$AAb?$AAg?$AA?$AA@ 00430d24     LIBCMTD:dbgheap.obj
 0002:00002d3c       ??_C@_0CI@JMLBEDHJ@?$CFhs?5located?5at?50x?$CFp?5is?5?$CFIu?5bytes@ 00430d3c     LIBCMTD:dbgheap.obj
 0002:00002d68       ??_C@_0EG@DGJMPDBH@?$CFhs?5located?5at?50x?$CFp?5is?5?$CFIu?5bytes@ 00430d68     LIBCMTD:dbgheap.obj
 0002:00002db0       ??_C@_0IC@BBJIOOJH@HEAP?5CORRUPTION?5DETECTED?3?5on?5top@ 00430db0     LIBCMTD:dbgheap.obj
 0002:00002e38       ??_C@_0KA@IHNJJKPL@HEAP?5CORRUPTION?5DETECTED?3?5on?5top@ 00430e38     LIBCMTD:dbgheap.obj
 0002:00002ed8       ??_C@_07OHKEFPKJ@DAMAGED?$AA@ 00430ed8     LIBCMTD:dbgheap.obj
 0002:00002ee0       ??_C@_0CL@HNNNMKMJ@_heapchk?5fails?5with?5unknown?5retu@ 00430ee0     LIBCMTD:dbgheap.obj
 0002:00002f0c       ??_C@_0CC@MFFCHFHO@_heapchk?5fails?5with?5_HEAPBADPTR?4@ 00430f0c     LIBCMTD:dbgheap.obj
 0002:00002f30       ??_C@_0CC@MJGLGBDG@_heapchk?5fails?5with?5_HEAPBADEND?4@ 00430f30     LIBCMTD:dbgheap.obj
 0002:00002f54       ??_C@_0CD@CPKEAPBD@_heapchk?5fails?5with?5_HEAPBADNODE@ 00430f54     LIBCMTD:dbgheap.obj
 0002:00002f78       ??_C@_0CE@MKKHMBMK@_heapchk?5fails?5with?5_HEAPBADBEGI@ 00430f78     LIBCMTD:dbgheap.obj
 0002:00002f9c       ??_C@_1BO@GJFDNMNF@?$AA_?$AAC?$AAr?$AAt?$AAS?$AAe?$AAt?$AAD?$AAb?$AAg?$AAF?$AAl?$AAa?$AAg?$AA?$AA@ 00430f9c     LIBCMTD:dbgheap.obj
 0002:00002fc0       ??_C@_1BHO@NNANJNF@?$AA?$CI?$AAf?$AAN?$AAe?$AAw?$AAB?$AAi?$AAt?$AAs?$AA?$DN?$AA?$DN?$AA_?$AAC?$AAR?$AAT?$AAD?$AAB?$AAG?$AA_?$AAR?$AAE?$AAP?$AAO?$AAR?$AAT?$AA_?$AAF?$AAL?$AAA?$AAG?$AA?$CJ?$AA?5@ 00430fc0     LIBCMTD:dbgheap.obj
 0002:00003140       ??_C@_0CB@EAAIGELO@Bad?5memory?5block?5found?5at?50x?$CFp?4?6@ 00431140     LIBCMTD:dbgheap.obj
 0002:00003164       ??_C@_0DP@LEFMFBOD@Bad?5memory?5block?5found?5at?50x?$CFp?4?6@ 00431164     LIBCMTD:dbgheap.obj
 0002:000031a4       ??_C@_1CE@NJJKELF@?$AA_?$AAC?$AAr?$AAt?$AAM?$AAe?$AAm?$AAC?$AAh?$AAe?$AAc?$AAk?$AAp?$AAo?$AAi?$AAn?$AAt?$AA?$AA@ 004311a4     LIBCMTD:dbgheap.obj
 0002:000031c8       ??_C@_1BM@MIMANDHC@?$AAs?$AAt?$AAa?$AAt?$AAe?$AA?5?$AA?$CB?$AA?$DN?$AA?5?$AAN?$AAU?$AAL?$AAL?$AA?$AA@ 004311c8     LIBCMTD:dbgheap.obj
 0002:000031e4       ??_C@_0BH@GFGKJDCO@Object?5dump?5complete?4?6?$AA@ 004311e4     LIBCMTD:dbgheap.obj
 0002:000031fc       ??_C@_0DA@MDLBNIBM@crt?5block?5at?50x?$CFp?0?5subtype?5?$CFx?0?5?$CF@ 004311fc     LIBCMTD:dbgheap.obj
 0002:0000322c       ??_C@_0CH@FAGDDGPN@normal?5block?5at?50x?$CFp?0?5?$CFIu?5bytes?5@ 0043122c     LIBCMTD:dbgheap.obj
 0002:00003254       ??_C@_0DD@GHNAAKBB@client?5block?5at?50x?$CFp?0?5subtype?5?$CFx@ 00431254     LIBCMTD:dbgheap.obj
 0002:00003288       ??_C@_06PKLGBFGM@?$HL?$CFld?$HN?5?$AA@ 00431288     LIBCMTD:dbgheap.obj
 0002:00003290       ??_C@_0L@JMEFFCCJ@?$CFhs?$CI?$CFd?$CJ?5?3?5?$AA@ 00431290     LIBCMTD:dbgheap.obj
 0002:0000329c       ??_C@_0BE@OIEFNFL@?$CDFile?5Error?$CD?$CI?$CFd?$CJ?5?3?5?$AA@ 0043129c     LIBCMTD:dbgheap.obj
 0002:000032b0       ??_C@_0BE@KCIPKCIA@Dumping?5objects?5?9?$DO?6?$AA@ 004312b0     LIBCMTD:dbgheap.obj
 0002:000032c4       ??_C@_0BA@HJBKCELP@?5Data?3?5?$DM?$CFs?$DO?5?$CFs?6?$AA@ 004312c4     LIBCMTD:dbgheap.obj
 0002:000032d4       ??_C@_1CG@LPFIACGM@?$AA_?$AAp?$AAr?$AAi?$AAn?$AAt?$AAM?$AAe?$AAm?$AAB?$AAl?$AAo?$AAc?$AAk?$AAD?$AAa?$AAt?$AAa?$AA?$AA@ 004312d4     LIBCMTD:dbgheap.obj
 0002:000032fc       ??_C@_05MKKEDADM@?$CF?42X?5?$AA@ 004312fc     LIBCMTD:dbgheap.obj
 0002:00003304       ??_C@_0BI@JBFPOEJA@Detected?5memory?5leaks?$CB?6?$AA@ 00431304     LIBCMTD:dbgheap.obj
 0002:0000331c       ??_C@_0DA@HMCPFNKN@f?3?2dd?2vctools?2crt_bld?2self_x86?2c@ 0043131c     LIBCMTD:onexit.obj
 0002:0000334c       ??_C@_13LBAGMAIH@?$AA?6?$AA?$AA@ 0043134c     LIBCMTD:wassert.obj
 0002:00003350       ??_C@_1EK@MBDPDCGA@?$AAM?$AAi?$AAc?$AAr?$AAo?$AAs?$AAo?$AAf?$AAt?$AA?5?$AAV?$AAi?$AAs?$AAu?$AAa?$AAl?$AA?5?$AAC?$AA?$CL?$AA?$CL?$AA?5?$AAR?$AAu?$AAn?$AAt?$AAi?$AAm?$AAe?$AA?5?$AAL?$AAi?$AAb@ 00431350     LIBCMTD:wassert.obj
 0002:000033a0       ??_C@_1HK@POCJMFGK@?$AA?$CI?$AAP?$AAr?$AAe?$AAs?$AAs?$AA?5?$AAR?$AAe?$AAt?$AAr?$AAy?$AA?5?$AAt?$AAo?$AA?5?$AAd?$AAe?$AAb?$AAu?$AAg?$AA?5?$AAt?$AAh?$AAe?$AA?5?$AAa?$AAp?$AAp?$AAl?$AAi?$AAc@ 004313a0     LIBCMTD:wassert.obj
 0002:00003420       ??_C@_1LO@HBAMOOPN@?$AAw?$AAc?$AAs?$AAc?$AAa?$AAt?$AA_?$AAs?$AA?$CI?$AAa?$AAs?$AAs?$AAe?$AAr?$AAt?$AAb?$AAu?$AAf?$AA?0?$AA?5?$AA?$CI?$AA6?$AA0?$AA?5?$AA?$CK?$AA?5?$AA9?$AA?$CJ?$AA?0?$AA?5?$AAL?$AA?$CC@ 00431420     LIBCMTD:wassert.obj
 0002:000034e0       ??_C@_1FG@GMPCGFKH@?$AAw?$AAc?$AAs?$AAc?$AAa?$AAt?$AA_?$AAs?$AA?$CI?$AAa?$AAs?$AAs?$AAe?$AAr?$AAt?$AAb?$AAu?$AAf?$AA?0?$AA?5?$AA?$CI?$AA6?$AA0?$AA?5?$AA?$CK?$AA?5?$AA9?$AA?$CJ?$AA?0?$AA?5?$AAd?$AAb@ 004314e0     LIBCMTD:wassert.obj
 0002:00003538       ??_C@_1OA@EGMLFBHJ@?$AAF?$AAo?$AAr?$AA?5?$AAi?$AAn?$AAf?$AAo?$AAr?$AAm?$AAa?$AAt?$AAi?$AAo?$AAn?$AA?5?$AAo?$AAn?$AA?5?$AAh?$AAo?$AAw?$AA?5?$AAy?$AAo?$AAu?$AAr?$AA?5?$AAp?$AAr?$AAo?$AAg@ 00431538     LIBCMTD:wassert.obj
 0002:00003618       ??_C@_1BCO@FMFFDPPF@?$AAw?$AAc?$AAs?$AAc?$AAa?$AAt?$AA_?$AAs?$AA?$CI?$AAa?$AAs?$AAs?$AAe?$AAr?$AAt?$AAb?$AAu?$AAf?$AA?0?$AA?5?$AA?$CI?$AA6?$AA0?$AA?5?$AA?$CK?$AA?5?$AA9?$AA?$CJ?$AA?0?$AA?5?$AAL?$AA?$CC@ 00431618     LIBCMTD:wassert.obj
 0002:00003748       ??_C@_1EM@MBEKCGIC@?$AAw?$AAc?$AAs?$AAc?$AAa?$AAt?$AA_?$AAs?$AA?$CI?$AA?5?$AAa?$AAs?$AAs?$AAe?$AAr?$AAt?$AAb?$AAu?$AAf?$AA?0?$AA?5?$AA?$CI?$AA6?$AA0?$AA?5?$AA?$CK?$AA?5?$AA9?$AA?$CJ?$AA?0?$AA?5?$AAe@ 00431748     LIBCMTD:wassert.obj
 0002:00003798       ??_C@_1CHM@CEIMNDLH@?$AAw?$AAc?$AAs?$AAn?$AAc?$AAa?$AAt?$AA_?$AAs?$AA?$CI?$AA?5?$AAa?$AAs?$AAs?$AAe?$AAr?$AAt?$AAb?$AAu?$AAf?$AA?0?$AA?5?$AA?$CI?$AA6?$AA0?$AA?5?$AA?$CK?$AA?5?$AA9?$AA?$CJ?$AA?0?$AA?5@ 00431798     LIBCMTD:wassert.obj
 0002:00003a18       ??_C@_1GC@HOBBPFHJ@?$AAw?$AAc?$AAs?$AAc?$AAa?$AAt?$AA_?$AAs?$AA?$CI?$AA?5?$AAa?$AAs?$AAs?$AAe?$AAr?$AAt?$AAb?$AAu?$AAf?$AA?0?$AA?5?$AA?$CI?$AA6?$AA0?$AA?5?$AA?$CK?$AA?5?$AA9?$AA?$CJ?$AA?0?$AA?5?$AAL@ 00431a18     LIBCMTD:wassert.obj
 0002:00003a80       ??_C@_1KG@CFEIMPNH@?$AA_?$AAi?$AAt?$AAo?$AAw?$AA_?$AAs?$AA?$CI?$AA?5?$AAl?$AAi?$AAn?$AAe?$AAn?$AAo?$AA?0?$AA?5?$AAa?$AAs?$AAs?$AAe?$AAr?$AAt?$AAb?$AAu?$AAf?$AA?5?$AA?$CL?$AA?5?$AAw?$AAc?$AAs@ 00431a80     LIBCMTD:wassert.obj
 0002:00003b28       ??_C@_1O@KCAFKHJE@?$AAL?$AAi?$AAn?$AAe?$AA?3?$AA?5?$AA?$AA@ 00431b28     LIBCMTD:wassert.obj
 0002:00003b38       ??_C@_1FG@NHDGJLMI@?$AAw?$AAc?$AAs?$AAc?$AAa?$AAt?$AA_?$AAs?$AA?$CI?$AA?5?$AAa?$AAs?$AAs?$AAe?$AAr?$AAt?$AAb?$AAu?$AAf?$AA?0?$AA?5?$AA?$CI?$AA6?$AA0?$AA?5?$AA?$CK?$AA?5?$AA9?$AA?$CJ?$AA?0?$AA?5?$AAL@ 00431b38     LIBCMTD:wassert.obj
 0002:00003b90       ??_C@_1FE@IIFBBPFI@?$AAw?$AAc?$AAs?$AAc?$AAa?$AAt?$AA_?$AAs?$AA?$CI?$AA?5?$AAa?$AAs?$AAs?$AAe?$AAr?$AAt?$AAb?$AAu?$AAf?$AA?0?$AA?5?$AA?$CI?$AA6?$AA0?$AA?5?$AA?$CK?$AA?5?$AA9?$AA?$CJ?$AA?0?$AA?5?$AAf@ 00431b90     LIBCMTD:wassert.obj
 0002:00003be8       ??_C@_1IC@CFFJBMAD@?$AAw?$AAc?$AAs?$AAc?$AAa?$AAt?$AA_?$AAs?$AA?$CI?$AA?5?$AAa?$AAs?$AAs?$AAe?$AAr?$AAt?$AAb?$AAu?$AAf?$AA?0?$AA?5?$AA?$CI?$AA6?$AA0?$AA?5?$AA?$CK?$AA?5?$AA9?$AA?$CJ?$AA?0?$AA?5?$AAp@ 00431be8     LIBCMTD:wassert.obj
 0002:00003c70       ??_C@_1HG@OJJMBIKO@?$AAw?$AAc?$AAs?$AAn?$AAc?$AAa?$AAt?$AA_?$AAs?$AA?$CI?$AA?5?$AAa?$AAs?$AAs?$AAe?$AAr?$AAt?$AAb?$AAu?$AAf?$AA?0?$AA?5?$AA?$CI?$AA6?$AA0?$AA?5?$AA?$CK?$AA?5?$AA9?$AA?$CJ?$AA?0?$AA?5@ 00431c70     LIBCMTD:wassert.obj
 0002:00003ce8       ??_C@_1GO@BIHLMMND@?$AAw?$AAc?$AAs?$AAn?$AAc?$AAa?$AAt?$AA_?$AAs?$AA?$CI?$AA?5?$AAa?$AAs?$AAs?$AAe?$AAr?$AAt?$AAb?$AAu?$AAf?$AA?0?$AA?5?$AA?$CI?$AA6?$AA0?$AA?5?$AA?$CK?$AA?5?$AA9?$AA?$CJ?$AA?0?$AA?5@ 00431ce8     LIBCMTD:wassert.obj
 0002:00003d58       ??_C@_1FO@IJLLDBEB@?$AAw?$AAc?$AAs?$AAc?$AAa?$AAt?$AA_?$AAs?$AA?$CI?$AA?5?$AAa?$AAs?$AAs?$AAe?$AAr?$AAt?$AAb?$AAu?$AAf?$AA?0?$AA?5?$AA?$CI?$AA6?$AA0?$AA?5?$AA?$CK?$AA?5?$AA9?$AA?$CJ?$AA?0?$AA?5?$AAp@ 00431d58     LIBCMTD:wassert.obj
 0002:00003db8       ??_C@_1FG@CLEECKIJ@?$AAw?$AAc?$AAs?$AAc?$AAa?$AAt?$AA_?$AAs?$AA?$CI?$AA?5?$AAa?$AAs?$AAs?$AAe?$AAr?$AAt?$AAb?$AAu?$AAf?$AA?0?$AA?5?$AA?$CI?$AA6?$AA0?$AA?5?$AA?$CK?$AA?5?$AA9?$AA?$CJ?$AA?0?$AA?5?$AAd@ 00431db8     LIBCMTD:wassert.obj
 0002:00003e10       ??_C@_1GG@PMHOPJKA@?$AAw?$AAc?$AAs?$AAn?$AAc?$AAa?$AAt?$AA_?$AAs?$AA?$CI?$AA?5?$AAa?$AAs?$AAs?$AAe?$AAr?$AAt?$AAb?$AAu?$AAf?$AA?0?$AA?5?$AA?$CI?$AA6?$AA0?$AA?5?$AA?$CK?$AA?5?$AA9?$AA?$CJ?$AA?0?$AA?5@ 00431e10     LIBCMTD:wassert.obj
 0002:00003e78       ??_C@_1O@HEMHKNDC@?$AAF?$AAi?$AAl?$AAe?$AA?3?$AA?5?$AA?$AA@ 00431e78     LIBCMTD:wassert.obj
 0002:00003e88       ??_C@_1FG@HIDBOJF@?$AAw?$AAc?$AAs?$AAc?$AAa?$AAt?$AA_?$AAs?$AA?$CI?$AA?5?$AAa?$AAs?$AAs?$AAe?$AAr?$AAt?$AAb?$AAu?$AAf?$AA?0?$AA?5?$AA?$CI?$AA6?$AA0?$AA?5?$AA?$CK?$AA?5?$AA9?$AA?$CJ?$AA?0?$AA?5?$AAL@ 00431e88     LIBCMTD:wassert.obj
 0002:00003ee0       ??_C@_1FC@FFKGGIKO@?$AAw?$AAc?$AAs?$AAc?$AAa?$AAt?$AA_?$AAs?$AA?$CI?$AA?5?$AAa?$AAs?$AAs?$AAe?$AAr?$AAt?$AAb?$AAu?$AAf?$AA?0?$AA?5?$AA?$CI?$AA6?$AA0?$AA?5?$AA?$CK?$AA?5?$AA9?$AA?$CJ?$AA?0?$AA?5?$AAn@ 00431ee0     LIBCMTD:wassert.obj
 0002:00003f38       ??_C@_1EK@BDNABPEK@?$AAw?$AAc?$AAs?$AAc?$AAa?$AAt?$AA_?$AAs?$AA?$CI?$AA?5?$AAa?$AAs?$AAs?$AAe?$AAr?$AAt?$AAb?$AAu?$AAf?$AA?0?$AA?5?$AA?$CI?$AA6?$AA0?$AA?5?$AA?$CK?$AA?5?$AA9?$AA?$CJ?$AA?0?$AA?5?$AAp@ 00431f38     LIBCMTD:wassert.obj
 0002:00003f88       ??_C@_1HK@JKBDGMGN@?$AAw?$AAc?$AAs?$AAn?$AAc?$AAp?$AAy?$AA_?$AAs?$AA?$CI?$AA?5?$AAp?$AAc?$AAh?$AA?0?$AA?5?$AA?$CI?$AA2?$AA6?$AA0?$AA?5?$AA?$CL?$AA?5?$AA1?$AA?$CJ?$AA?5?$AA?9?$AA?5?$AA?$CI?$AAp?$AAc?$AAh@ 00431f88     LIBCMTD:wassert.obj
 0002:00004008       ??_C@_1HA@EPFCONEE@?$AAw?$AAc?$AAs?$AAc?$AAp?$AAy?$AA_?$AAs?$AA?$CI?$AA?5?$AAp?$AAr?$AAo?$AAg?$AAn?$AAa?$AAm?$AAe?$AA?0?$AA?5?$AA2?$AA6?$AA0?$AA?5?$AA?$CL?$AA?5?$AA1?$AA?0?$AA?5?$AAL?$AA?$CC?$AA?$DM@ 00432008     LIBCMTD:wassert.obj
 0002:00004078       ??_C@_1BE@PHKBBGE@?$AAP?$AAr?$AAo?$AAg?$AAr?$AAa?$AAm?$AA?3?$AA?5?$AA?$AA@ 00432078     LIBCMTD:wassert.obj
 0002:00004090       ??_C@_1FM@LKICECBD@?$AAw?$AAc?$AAs?$AAc?$AAa?$AAt?$AA_?$AAs?$AA?$CI?$AA?5?$AAa?$AAs?$AAs?$AAe?$AAr?$AAt?$AAb?$AAu?$AAf?$AA?0?$AA?5?$AA?$CI?$AA6?$AA0?$AA?5?$AA?$CK?$AA?5?$AA9?$AA?$CJ?$AA?0?$AA?5?$AAL@ 00432090     LIBCMTD:wassert.obj
 0002:000040f0       ??_C@_1FI@JIGMFG@?$AAw?$AAc?$AAs?$AAc?$AAa?$AAt?$AA_?$AAs?$AA?$CI?$AA?5?$AAa?$AAs?$AAs?$AAe?$AAr?$AAt?$AAb?$AAu?$AAf?$AA?0?$AA?5?$AA?$CI?$AA6?$AA0?$AA?5?$AA?$CK?$AA?5?$AA9?$AA?$CJ?$AA?0?$AA?5?$AAd@ 004320f0     LIBCMTD:wassert.obj
 0002:00004148       ??_C@_1CE@OJBNHDMO@?$AAA?$AAs?$AAs?$AAe?$AAr?$AAt?$AAi?$AAo?$AAn?$AA?5?$AAf?$AAa?$AAi?$AAl?$AAe?$AAd?$AA?$CB?$AA?$AA@ 00432148     LIBCMTD:wassert.obj
 0002:00004170       ??_C@_1GM@EFCJNBAA@?$AAw?$AAc?$AAs?$AAc?$AAp?$AAy?$AA_?$AAs?$AA?$CI?$AA?5?$AAa?$AAs?$AAs?$AAe?$AAr?$AAt?$AAb?$AAu?$AAf?$AA?0?$AA?5?$AA?$CI?$AA6?$AA0?$AA?5?$AA?$CK?$AA?5?$AA9?$AA?$CJ?$AA?0?$AA?5?$AAL@ 00432170     LIBCMTD:wassert.obj
 0002:000041dc       ??_C@_1BC@LNOOMFNA@?$AA_?$AAw?$AAa?$AAs?$AAs?$AAe?$AAr?$AAt?$AA?$AA@ 004321dc     LIBCMTD:wassert.obj
 0002:000041f0       ??_C@_1GA@COEIABIF@?$AAf?$AA?3?$AA?2?$AAd?$AAd?$AA?2?$AAv?$AAc?$AAt?$AAo?$AAo?$AAl?$AAs?$AA?2?$AAc?$AAr?$AAt?$AA_?$AAb?$AAl?$AAd?$AA?2?$AAs?$AAe?$AAl?$AAf?$AA_?$AAx?$AA8?$AA6?$AA?2?$AAc@ 004321f0     LIBCMTD:wassert.obj
 0002:00004250       ??_C@_07LCBHPJJN@LC_TIME?$AA@ 00432250     LIBCMTD:setlocal.obj
 0002:00004258       ??_C@_0L@DLHIECNL@LC_NUMERIC?$AA@ 00432258     LIBCMTD:setlocal.obj
 0002:00004264       ??_C@_0M@MIENIKLA@LC_MONETARY?$AA@ 00432264     LIBCMTD:setlocal.obj
 0002:00004270       ??_C@_08EADHIDAD@LC_CTYPE?$AA@ 00432270     LIBCMTD:setlocal.obj
 0002:0000427c       ??_C@_0L@KFJHEKIK@LC_COLLATE?$AA@ 0043227c     LIBCMTD:setlocal.obj
 0002:00004288       ??_C@_06NEFDFEKB@LC_ALL?$AA@ 00432288     LIBCMTD:setlocal.obj
 0002:00004290       ___lc_category             00432290     LIBCMTD:setlocal.obj
 0002:00004358       ??_C@_1GE@OLEIGPBJ@?$AAf?$AA?3?$AA?2?$AAd?$AAd?$AA?2?$AAv?$AAc?$AAt?$AAo?$AAo?$AAl?$AAs?$AA?2?$AAc?$AAr?$AAt?$AA_?$AAb?$AAl?$AAd?$AA?2?$AAs?$AAe?$AAl?$AAf?$AA_?$AAx?$AA8?$AA6?$AA?2?$AAc@ 00432358     LIBCMTD:setlocal.obj
 0002:000043bc       ??_C@_0DC@JCPFNMID@f?3?2dd?2vctools?2crt_bld?2self_x86?2c@ 004323bc     LIBCMTD:setlocal.obj
 0002:000043f0       ??_C@_1BE@DBJGBOJC@?$AAs?$AAe?$AAt?$AAl?$AAo?$AAc?$AAa?$AAl?$AAe?$AA?$AA@ 004323f0     LIBCMTD:setlocal.obj
 0002:00004408       ??_C@_1FG@OHLFEKMC@?$AAL?$AAC?$AA_?$AAM?$AAI?$AAN?$AA?5?$AA?$DM?$AA?$DN?$AA?5?$AA_?$AAc?$AAa?$AAt?$AAe?$AAg?$AAo?$AAr?$AAy?$AA?5?$AA?$CG?$AA?$CG?$AA?5?$AA_?$AAc?$AAa?$AAt?$AAe?$AAg?$AAo?$AAr?$AAy@ 00432408     LIBCMTD:setlocal.obj
 0002:00004460       ??_C@_1IA@PFIKKKFB@?$AAs?$AAt?$AAr?$AAn?$AAc?$AAp?$AAy?$AA_?$AAs?$AA?$CI?$AAl?$AAc?$AAt?$AAe?$AAm?$AAp?$AA?0?$AA?5?$AA?$CI?$AAs?$AAi?$AAz?$AAe?$AAo?$AAf?$AA?$CI?$AAl?$AAc?$AAt?$AAe?$AAm?$AAp@ 00432460     LIBCMTD:setlocal.obj
 0002:000044e0       ??_C@_1CE@OFNHIOO@?$AA_?$AAs?$AAe?$AAt?$AAl?$AAo?$AAc?$AAa?$AAl?$AAe?$AA_?$AAn?$AAo?$AAl?$AAo?$AAc?$AAk?$AA?$AA@ 004324e0     LIBCMTD:setlocal.obj
 0002:00004504       ??_C@_01ICJEACDI@?$DL?$AA@ 00432504     LIBCMTD:setlocal.obj
 0002:00004508       ??_C@_02BALPLPBG@?$DN?$DL?$AA@ 00432508     LIBCMTD:setlocal.obj
 0002:00004510       ??_C@_1GO@JALHLJEH@?$AAs?$AAt?$AAr?$AAc?$AAp?$AAy?$AA_?$AAs?$AA?$CI?$AAp?$AAc?$AAh?$AA?5?$AA?$CL?$AA?5?$AAs?$AAi?$AAz?$AAe?$AAo?$AAf?$AA?$CI?$AAi?$AAn?$AAt?$AA?$CJ?$AA?0?$AA?5?$AAc?$AAc?$AAh?$AA?5@ 00432510     LIBCMTD:setlocal.obj
 0002:00004580       ??_C@_1CG@IEFIICPK@?$AA_?$AAs?$AAe?$AAt?$AAl?$AAo?$AAc?$AAa?$AAl?$AAe?$AA_?$AAs?$AAe?$AAt?$AA_?$AAc?$AAa?$AAt?$AA?$AA@ 00432580     LIBCMTD:setlocal.obj
 0002:000045a8       ??_C@_1DA@GDKKLCLM@?$AAs?$AAt?$AAr?$AAc?$AAa?$AAt?$AA_?$AAs?$AA?$CI?$AAp?$AAc?$AAh?$AA?0?$AA?5?$AAc?$AAc?$AAh?$AA?0?$AA?5?$AA?$CC?$AA?$DL?$AA?$CC?$AA?$CJ?$AA?$AA@ 004325a8     LIBCMTD:setlocal.obj
 0002:000045d8       ??_C@_1CG@NNFIJLDA@?$AA_?$AAs?$AAe?$AAt?$AAl?$AAo?$AAc?$AAa?$AAl?$AAe?$AA_?$AAg?$AAe?$AAt?$AA_?$AAa?$AAl?$AAl?$AA?$AA@ 004325d8     LIBCMTD:setlocal.obj
 0002:00004600       ??_C@_01NEMOKFLO@?$DN?$AA@ 00432600     LIBCMTD:setlocal.obj
 0002:00004608       ??_C@_1FA@MHAOOIBO@?$AAs?$AAt?$AAr?$AAc?$AAp?$AAy?$AA_?$AAs?$AA?$CI?$AAo?$AAu?$AAt?$AAp?$AAu?$AAt?$AA?0?$AA?5?$AAs?$AAi?$AAz?$AAe?$AAI?$AAn?$AAC?$AAh?$AAa?$AAr?$AAs?$AA?0?$AA?5?$AAc?$AAa@ 00432608     LIBCMTD:setlocal.obj
 0002:00004658       ??_C@_1IA@ONNFOEDA@?$AAs?$AAt?$AAr?$AAn?$AAc?$AAp?$AAy?$AA_?$AAs?$AA?$CI?$AAc?$AAa?$AAc?$AAh?$AAe?$AAi?$AAn?$AA?0?$AA?5?$AAc?$AAa?$AAc?$AAh?$AAe?$AAi?$AAn?$AAS?$AAi?$AAz?$AAe?$AA?0?$AA?5@ 00432658     LIBCMTD:setlocal.obj
 0002:000046d8       ??_C@_1EG@MOMHKOD@?$AAs?$AAt?$AAr?$AAc?$AAp?$AAy?$AA_?$AAs?$AA?$CI?$AAo?$AAu?$AAt?$AAp?$AAu?$AAt?$AA?0?$AA?5?$AAs?$AAi?$AAz?$AAe?$AAI?$AAn?$AAC?$AAh?$AAa?$AAr?$AAs?$AA?0?$AA?5?$AA?$CC?$AAC@ 004326d8     LIBCMTD:setlocal.obj
 0002:00004720       ??_C@_1BM@OIIBLEFG@?$AA_?$AAe?$AAx?$AAp?$AAa?$AAn?$AAd?$AAl?$AAo?$AAc?$AAa?$AAl?$AAe?$AA?$AA@ 00432720     LIBCMTD:setlocal.obj
 0002:00004740       ??_C@_1BGM@IJDLABMC@?$AAs?$AAt?$AAr?$AAc?$AAa?$AAt?$AA_?$AAs?$AA?$CI?$AAo?$AAu?$AAt?$AAs?$AAt?$AAr?$AA?0?$AA?5?$AAs?$AAi?$AAz?$AAe?$AAI?$AAn?$AAB?$AAy?$AAt?$AAe?$AAs?$AA?0?$AA?5?$AA?$CI?$AA?5@ 00432740     LIBCMTD:setlocal.obj
 0002:000048ac       ??_C@_1BC@PIABMDIP@?$AA_?$AAs?$AAt?$AAr?$AAc?$AAa?$AAt?$AAs?$AA?$AA@ 004328ac     LIBCMTD:setlocal.obj
 0002:000048c0       ??_C@_1MM@NOPMGFHF@?$AAs?$AAt?$AAr?$AAn?$AAc?$AAp?$AAy?$AA_?$AAs?$AA?$CI?$AAn?$AAa?$AAm?$AAe?$AAs?$AA?9?$AA?$DO?$AAs?$AAz?$AAC?$AAo?$AAd?$AAe?$AAP?$AAa?$AAg?$AAe?$AA?0?$AA?5?$AA?$CI?$AAs?$AAi@ 004328c0     LIBCMTD:setlocal.obj
 0002:00004990       ??_C@_1MG@PHNILIAG@?$AAs?$AAt?$AAr?$AAn?$AAc?$AAp?$AAy?$AA_?$AAs?$AA?$CI?$AAn?$AAa?$AAm?$AAe?$AAs?$AA?9?$AA?$DO?$AAs?$AAz?$AAC?$AAo?$AAu?$AAn?$AAt?$AAr?$AAy?$AA?0?$AA?5?$AA?$CI?$AAs?$AAi?$AAz@ 00432990     LIBCMTD:setlocal.obj
 0002:00004a58       ??_C@_1MM@BFEECMAF@?$AAs?$AAt?$AAr?$AAn?$AAc?$AAp?$AAy?$AA_?$AAs?$AA?$CI?$AAn?$AAa?$AAm?$AAe?$AAs?$AA?9?$AA?$DO?$AAs?$AAz?$AAL?$AAa?$AAn?$AAg?$AAu?$AAa?$AAg?$AAe?$AA?0?$AA?5?$AA?$CI?$AAs?$AAi@ 00432a58     LIBCMTD:setlocal.obj
 0002:00004b24       ??_C@_03EGDHDPFD@_?4?0?$AA@ 00432b24     LIBCMTD:setlocal.obj
 0002:00004b28       ??_C@_1NG@FMOPGKGG@?$AAs?$AAt?$AAr?$AAn?$AAc?$AAp?$AAy?$AA_?$AAs?$AA?$CI?$AAn?$AAa?$AAm?$AAe?$AAs?$AA?9?$AA?$DO?$AAs?$AAz?$AAC?$AAo?$AAd?$AAe?$AAP?$AAa?$AAg?$AAe?$AA?0?$AA?5?$AA?$CI?$AAs?$AAi@ 00432b28     LIBCMTD:setlocal.obj
 0002:00004c00       ??_C@_1BK@CBMMLAGJ@?$AA_?$AA_?$AAl?$AAc?$AA_?$AAs?$AAt?$AAr?$AAt?$AAo?$AAl?$AAc?$AA?$AA@ 00432c00     LIBCMTD:setlocal.obj
 0002:00004c1c       ??_C@_01LFCBOECM@?4?$AA@   00432c1c     LIBCMTD:setlocal.obj
 0002:00004c20       ??_C@_01IDAFKMJL@_?$AA@    00432c20     LIBCMTD:setlocal.obj
 0002:00004c28       ??_C@_1HC@IBDBLKCB@?$AAs?$AAt?$AAr?$AAc?$AAp?$AAy?$AA_?$AAs?$AA?$CI?$AAl?$AAo?$AAc?$AAa?$AAl?$AAe?$AA?0?$AA?5?$AAs?$AAi?$AAz?$AAe?$AAI?$AAn?$AAB?$AAy?$AAt?$AAe?$AAs?$AA?0?$AA?5?$AA?$CI?$AAc@ 00432c28     LIBCMTD:setlocal.obj
 0002:00004c9c       ??_C@_1BK@FGDJDEPG@?$AA_?$AA_?$AAl?$AAc?$AA_?$AAl?$AAc?$AAt?$AAo?$AAs?$AAt?$AAr?$AA?$AA@ 00432c9c     LIBCMTD:setlocal.obj
 0002:00004cb8       ??_C@_1GM@HFLCJPGH@?$AAs?$AAt?$AAr?$AAc?$AAp?$AAy?$AA_?$AAs?$AA?$CI?$AAe?$AAr?$AAr?$AAm?$AAs?$AAg?$AA?0?$AA?5?$AA?$CI?$AA9?$AA4?$AA?$CL?$AA3?$AA8?$AA?$CL?$AA2?$AA?$CJ?$AA?0?$AA?5?$AA_?$AAg?$AAe?$AAt@ 00432cb8     LIBCMTD:strerror.obj
 0002:00004d24       ??_C@_1BC@CPPAPMCG@?$AAs?$AAt?$AAr?$AAe?$AAr?$AAr?$AAo?$AAr?$AA?$AA@ 00432d24     LIBCMTD:strerror.obj
 0002:00004d38       ??_C@_1GE@IMODLDCP@?$AAf?$AA?3?$AA?2?$AAd?$AAd?$AA?2?$AAv?$AAc?$AAt?$AAo?$AAo?$AAl?$AAs?$AA?2?$AAc?$AAr?$AAt?$AA_?$AAb?$AAl?$AAd?$AA?2?$AAs?$AAe?$AAl?$AAf?$AA_?$AAx?$AA8?$AA6?$AA?2?$AAc@ 00432d38     LIBCMTD:strerror.obj
 0002:00004d9c       ??_C@_0DC@PHLJOGAJ@f?3?2dd?2vctools?2crt_bld?2self_x86?2c@ 00432d9c     LIBCMTD:strerror.obj
 0002:00004dd0       ??_C@_0EA@FCLIIPNN@Visual?5C?$CL?$CL?5CRT?3?5Not?5enough?5memor@ 00432dd0     LIBCMTD:strerror.obj
 0002:00004e10       ??_C@_1CC@JNJFIMGE@?$AAs?$AAi?$AAz?$AAe?$AAI?$AAn?$AAT?$AAC?$AAh?$AAa?$AAr?$AAs?$AA?5?$AA?$DO?$AA?5?$AA0?$AA?$AA@ 00432e10     LIBCMTD:strerror.obj
 0002:00004e38       ??_C@_1GA@INJGGEBC@?$AAf?$AA?3?$AA?2?$AAd?$AAd?$AA?2?$AAv?$AAc?$AAt?$AAo?$AAo?$AAl?$AAs?$AA?2?$AAc?$AAr?$AAt?$AA_?$AAb?$AAl?$AAd?$AA?2?$AAs?$AAe?$AAl?$AAf?$AA_?$AAx?$AA8?$AA6?$AA?2?$AAc@ 00432e38     LIBCMTD:a_map.obj
 0002:00004e98       ??_C@_1FE@KNPCCODH@?$AA?$CI?$AA?$CC?$AAC?$AAo?$AAr?$AAr?$AAu?$AAp?$AAt?$AAe?$AAd?$AA?5?$AAp?$AAo?$AAi?$AAn?$AAt?$AAe?$AAr?$AA?5?$AAp?$AAa?$AAs?$AAs?$AAe?$AAd?$AA?5?$AAt?$AAo?$AA?5?$AA_?$AAf@ 00432e98     LIBCMTD:a_map.obj
 0002:00004ef0       ___newctype                00432ef0     LIBCMTD:ctype.obj
 0002:000051f0       __wctype                   004331f0     LIBCMTD:ctype.obj
 0002:000053f8       ___newclmap                004333f8     LIBCMTD:ctype.obj
 0002:00005578       ___newcumap                00433578     LIBCMTD:ctype.obj
 0002:000056f8       ??_C@_1DG@NMBGBDM@?$AAp?$AAl?$AAo?$AAc?$AAi?$AA?9?$AA?$DO?$AAc?$AAt?$AAy?$AAp?$AAe?$AA1?$AA_?$AAr?$AAe?$AAf?$AAc?$AAo?$AAu?$AAn?$AAt?$AA?5?$AA?$DO?$AA?5?$AA0?$AA?$AA@ 004336f8     LIBCMTD:initctyp.obj
 0002:00005730       ??_C@_1GE@OCPKBDKE@?$AAf?$AA?3?$AA?2?$AAd?$AAd?$AA?2?$AAv?$AAc?$AAt?$AAo?$AAo?$AAl?$AAs?$AA?2?$AAc?$AAr?$AAt?$AA_?$AAb?$AAl?$AAd?$AA?2?$AAs?$AAe?$AAl?$AAf?$AA_?$AAx?$AA8?$AA6?$AA?2?$AAc@ 00433730     LIBCMTD:initctyp.obj
 0002:00005794       ??_C@_0DC@EHLBFILA@f?3?2dd?2vctools?2crt_bld?2self_x86?2c@ 00433794     LIBCMTD:initctyp.obj
 0002:000057c8       ??_C@_0DB@OLNNDFNH@f?3?2dd?2vctools?2crt_bld?2self_x86?2c@ 004337c8     LIBCMTD:_sftbuf.obj
 0002:00005800       ??_C@_1GC@DGAFOCMO@?$AAf?$AA?3?$AA?2?$AAd?$AAd?$AA?2?$AAv?$AAc?$AAt?$AAo?$AAo?$AAl?$AAs?$AA?2?$AAc?$AAr?$AAt?$AA_?$AAb?$AAl?$AAd?$AA?2?$AAs?$AAe?$AAl?$AAf?$AA_?$AAx?$AA8?$AA6?$AA?2?$AAc@ 00433800     LIBCMTD:_sftbuf.obj
 0002:00005864       ??_C@_1CO@KCKAACMI@?$AAf?$AAl?$AAa?$AAg?$AA?5?$AA?$DN?$AA?$DN?$AA?5?$AA0?$AA?5?$AA?$HM?$AA?$HM?$AA?5?$AAf?$AAl?$AAa?$AAg?$AA?5?$AA?$DN?$AA?$DN?$AA?5?$AA1?$AA?$AA@ 00433864     LIBCMTD:_sftbuf.obj
 0002:00005894       ??_C@_1O@CEDCILHN@?$AA?$CI?$AAn?$AAu?$AAl?$AAl?$AA?$CJ?$AA?$AA@ 00433894     LIBCMTD:output.obj
 0002:000058a4       ??_C@_06OJHGLDPL@?$CInull?$CJ?$AA@ 004338a4     LIBCMTD:output.obj
 0002:000058b0       ___lookuptable             004338b0     LIBCMTD:output.obj
 0002:0000590c       ??_C@_0DA@NFBEBPEE@f?3?2dd?2vctools?2crt_bld?2self_x86?2c@ 0043390c     LIBCMTD:output.obj
 0002:00005940       ??_C@_1EK@PNGFDECN@?$AA?$CI?$AA?$CC?$AA?8?$AAn?$AA?8?$AA?5?$AAf?$AAo?$AAr?$AAm?$AAa?$AAt?$AA?5?$AAs?$AAp?$AAe?$AAc?$AAi?$AAf?$AAi?$AAe?$AAr?$AA?5?$AAd?$AAi?$AAs?$AAa?$AAb?$AAl?$AAe?$AAd?$AA?$CC@ 00433940     LIBCMTD:output.obj
 0002:0000598c       ??_C@_1CC@IFFHEMNF@?$AA?$CI?$AAc?$AAh?$AA?5?$AA?$CB?$AA?$DN?$AA?5?$AA_?$AAT?$AA?$CI?$AA?8?$AA?2?$AA0?$AA?8?$AA?$CJ?$AA?$CJ?$AA?$AA@ 0043398c     LIBCMTD:output.obj
 0002:000059b0       ??_C@_1BE@IONLIDNC@?$AA_?$AAo?$AAu?$AAt?$AAp?$AAu?$AAt?$AA_?$AAl?$AA?$AA@ 004339b0     LIBCMTD:output.obj
 0002:000059c8       ??_C@_1GA@HHFOFBLN@?$AAf?$AA?3?$AA?2?$AAd?$AAd?$AA?2?$AAv?$AAc?$AAt?$AAo?$AAo?$AAl?$AAs?$AA?2?$AAc?$AAr?$AAt?$AA_?$AAb?$AAl?$AAd?$AA?2?$AAs?$AAe?$AAl?$AAf?$AA_?$AAx?$AA8?$AA6?$AA?2?$AAc@ 004339c8     LIBCMTD:output.obj
 0002:00005a30       ??_C@_1BO@BKOMIGKJ@?$AAr?$AAu?$AAn?$AAt?$AAi?$AAm?$AAe?$AA?5?$AAe?$AAr?$AAr?$AAo?$AAr?$AA?5?$AA?$AA@ 00433a30     LIBCMTD:crt0msg.obj
 0002:00005a50       ??_C@_15JNBOKNOG@?$AA?$AN?$AA?6?$AA?$AA@ 00433a50     LIBCMTD:crt0msg.obj
 0002:00005a58       ??_C@_1BM@JBBEPPHI@?$AAT?$AAL?$AAO?$AAS?$AAS?$AA?5?$AAe?$AAr?$AAr?$AAo?$AAr?$AA?$AN?$AA?6?$AA?$AA@ 00433a58     LIBCMTD:crt0msg.obj
 0002:00005a74       ??_C@_1BK@KMOMNAAI@?$AAS?$AAI?$AAN?$AAG?$AA?5?$AAe?$AAr?$AAr?$AAo?$AAr?$AA?$AN?$AA?6?$AA?$AA@ 00433a74     LIBCMTD:crt0msg.obj
 0002:00005a90       ??_C@_1BO@BFCDCGC@?$AAD?$AAO?$AAM?$AAA?$AAI?$AAN?$AA?5?$AAe?$AAr?$AAr?$AAo?$AAr?$AA?$AN?$AA?6?$AA?$AA@ 00433a90     LIBCMTD:crt0msg.obj
 0002:00005ab0       ??_C@_1BOO@KGEDBGAJ@?$AAR?$AA6?$AA0?$AA3?$AA3?$AA?$AN?$AA?6?$AA?9?$AA?5?$AAA?$AAt?$AAt?$AAe?$AAm?$AAp?$AAt?$AA?5?$AAt?$AAo?$AA?5?$AAu?$AAs?$AAe?$AA?5?$AAM?$AAS?$AAI?$AAL?$AA?5?$AAc?$AAo?$AAd@ 00433ab0     LIBCMTD:crt0msg.obj
 0002:00005ca0       ??_C@_1GG@GOPILAJP@?$AAR?$AA6?$AA0?$AA3?$AA2?$AA?$AN?$AA?6?$AA?9?$AA?5?$AAn?$AAo?$AAt?$AA?5?$AAe?$AAn?$AAo?$AAu?$AAg?$AAh?$AA?5?$AAs?$AAp?$AAa?$AAc?$AAe?$AA?5?$AAf?$AAo?$AAr?$AA?5?$AAl?$AAo@ 00433ca0     LIBCMTD:crt0msg.obj
 0002:00005d08       ??_C@_1MG@ENCOOIDF@?$AAR?$AA6?$AA0?$AA3?$AA1?$AA?$AN?$AA?6?$AA?9?$AA?5?$AAA?$AAt?$AAt?$AAe?$AAm?$AAp?$AAt?$AA?5?$AAt?$AAo?$AA?5?$AAi?$AAn?$AAi?$AAt?$AAi?$AAa?$AAl?$AAi?$AAz?$AAe?$AA?5?$AAt@ 00433d08     LIBCMTD:crt0msg.obj
 0002:00005dd0       ??_C@_1DO@BMFCDCD@?$AAR?$AA6?$AA0?$AA3?$AA0?$AA?$AN?$AA?6?$AA?9?$AA?5?$AAC?$AAR?$AAT?$AA?5?$AAn?$AAo?$AAt?$AA?5?$AAi?$AAn?$AAi?$AAt?$AAi?$AAa?$AAl?$AAi?$AAz?$AAe?$AAd?$AA?$AN?$AA?6?$AA?$AA@ 00433dd0     LIBCMTD:crt0msg.obj
 0002:00005e10       ??_C@_1EK@HHFLMAOL@?$AAR?$AA6?$AA0?$AA2?$AA8?$AA?$AN?$AA?6?$AA?9?$AA?5?$AAu?$AAn?$AAa?$AAb?$AAl?$AAe?$AA?5?$AAt?$AAo?$AA?5?$AAi?$AAn?$AAi?$AAt?$AAi?$AAa?$AAl?$AAi?$AAz?$AAe?$AA?5?$AAh?$AAe@ 00433e10     LIBCMTD:crt0msg.obj
 0002:00005e60       ??_C@_1GK@MFGOKLAG@?$AAR?$AA6?$AA0?$AA2?$AA7?$AA?$AN?$AA?6?$AA?9?$AA?5?$AAn?$AAo?$AAt?$AA?5?$AAe?$AAn?$AAo?$AAu?$AAg?$AAh?$AA?5?$AAs?$AAp?$AAa?$AAc?$AAe?$AA?5?$AAf?$AAo?$AAr?$AA?5?$AAl?$AAo@ 00433e60     LIBCMTD:crt0msg.obj
 0002:00005ed0       ??_C@_1GK@MCAAGJMO@?$AAR?$AA6?$AA0?$AA2?$AA6?$AA?$AN?$AA?6?$AA?9?$AA?5?$AAn?$AAo?$AAt?$AA?5?$AAe?$AAn?$AAo?$AAu?$AAg?$AAh?$AA?5?$AAs?$AAp?$AAa?$AAc?$AAe?$AA?5?$AAf?$AAo?$AAr?$AA?5?$AAs?$AAt@ 00433ed0     LIBCMTD:crt0msg.obj
 0002:00005f40       ??_C@_1EM@MAADIHMB@?$AAR?$AA6?$AA0?$AA2?$AA5?$AA?$AN?$AA?6?$AA?9?$AA?5?$AAp?$AAu?$AAr?$AAe?$AA?5?$AAv?$AAi?$AAr?$AAt?$AAu?$AAa?$AAl?$AA?5?$AAf?$AAu?$AAn?$AAc?$AAt?$AAi?$AAo?$AAn?$AA?5?$AAc@ 00433f40     LIBCMTD:crt0msg.obj
 0002:00005f90       ??_C@_1GK@FHCKBEFA@?$AAR?$AA6?$AA0?$AA2?$AA4?$AA?$AN?$AA?6?$AA?9?$AA?5?$AAn?$AAo?$AAt?$AA?5?$AAe?$AAn?$AAo?$AAu?$AAg?$AAh?$AA?5?$AAs?$AAp?$AAa?$AAc?$AAe?$AA?5?$AAf?$AAo?$AAr?$AA?5?$AA_?$AAo@ 00433f90     LIBCMTD:crt0msg.obj
 0002:00006000       ??_C@_1FC@ECHBIFBC@?$AAR?$AA6?$AA0?$AA1?$AA9?$AA?$AN?$AA?6?$AA?9?$AA?5?$AAu?$AAn?$AAa?$AAb?$AAl?$AAe?$AA?5?$AAt?$AAo?$AA?5?$AAo?$AAp?$AAe?$AAn?$AA?5?$AAc?$AAo?$AAn?$AAs?$AAo?$AAl?$AAe?$AA?5@ 00434000     LIBCMTD:crt0msg.obj
 0002:00006058       ??_C@_1EC@JIBHAOPH@?$AAR?$AA6?$AA0?$AA1?$AA8?$AA?$AN?$AA?6?$AA?9?$AA?5?$AAu?$AAn?$AAe?$AAx?$AAp?$AAe?$AAc?$AAt?$AAe?$AAd?$AA?5?$AAh?$AAe?$AAa?$AAp?$AA?5?$AAe?$AAr?$AAr?$AAo?$AAr?$AA?$AN?$AA?6@ 00434058     LIBCMTD:crt0msg.obj
 0002:000060a0       ??_C@_1FK@BEOGODMC@?$AAR?$AA6?$AA0?$AA1?$AA7?$AA?$AN?$AA?6?$AA?9?$AA?5?$AAu?$AAn?$AAe?$AAx?$AAp?$AAe?$AAc?$AAt?$AAe?$AAd?$AA?5?$AAm?$AAu?$AAl?$AAt?$AAi?$AAt?$AAh?$AAr?$AAe?$AAa?$AAd?$AA?5@ 004340a0     LIBCMTD:crt0msg.obj
 0002:00006100       ??_C@_1FI@LOGNIKDM@?$AAR?$AA6?$AA0?$AA1?$AA6?$AA?$AN?$AA?6?$AA?9?$AA?5?$AAn?$AAo?$AAt?$AA?5?$AAe?$AAn?$AAo?$AAu?$AAg?$AAh?$AA?5?$AAs?$AAp?$AAa?$AAc?$AAe?$AA?5?$AAf?$AAo?$AAr?$AA?5?$AAt?$AAh@ 00434100     LIBCMTD:crt0msg.obj
 0002:00006158       ??_C@_1EG@BEHAGFJD@?$AAR?$AA6?$AA0?$AA1?$AA0?$AA?$AN?$AA?6?$AA?9?$AA?5?$AAa?$AAb?$AAo?$AAr?$AAt?$AA?$CI?$AA?$CJ?$AA?5?$AAh?$AAa?$AAs?$AA?5?$AAb?$AAe?$AAe?$AAn?$AA?5?$AAc?$AAa?$AAl?$AAl?$AAe?$AAd@ 00434158     LIBCMTD:crt0msg.obj
 0002:000061a0       ??_C@_1FI@HONFMGBI@?$AAR?$AA6?$AA0?$AA0?$AA9?$AA?$AN?$AA?6?$AA?9?$AA?5?$AAn?$AAo?$AAt?$AA?5?$AAe?$AAn?$AAo?$AAu?$AAg?$AAh?$AA?5?$AAs?$AAp?$AAa?$AAc?$AAe?$AA?5?$AAf?$AAo?$AAr?$AA?5?$AAe?$AAn@ 004341a0     LIBCMTD:crt0msg.obj
 0002:000061f8       ??_C@_1FE@LLNEDJMD@?$AAR?$AA6?$AA0?$AA0?$AA8?$AA?$AN?$AA?6?$AA?9?$AA?5?$AAn?$AAo?$AAt?$AA?5?$AAe?$AAn?$AAo?$AAu?$AAg?$AAh?$AA?5?$AAs?$AAp?$AAa?$AAc?$AAe?$AA?5?$AAf?$AAo?$AAr?$AA?5?$AAa?$AAr@ 004341f8     LIBCMTD:crt0msg.obj
 0002:00006250       ??_C@_1FK@PGACCAFB@?$AAR?$AA6?$AA0?$AA0?$AA2?$AA?$AN?$AA?6?$AA?9?$AA?5?$AAf?$AAl?$AAo?$AAa?$AAt?$AAi?$AAn?$AAg?$AA?5?$AAp?$AAo?$AAi?$AAn?$AAt?$AA?5?$AAs?$AAu?$AAp?$AAp?$AAo?$AAr?$AAt?$AA?5@ 00434250     LIBCMTD:crt0msg.obj
 0002:00006360       ??_C@_1IG@NMONDPP@?$AAw?$AAc?$AAs?$AAc?$AAa?$AAt?$AA_?$AAs?$AA?$CI?$AAo?$AAu?$AAt?$AAm?$AAs?$AAg?$AA?0?$AA?5?$AA?$CI?$AAs?$AAi?$AAz?$AAe?$AAo?$AAf?$AA?$CI?$AAo?$AAu?$AAt?$AAm?$AAs?$AAg?$AA?$CJ@ 00434360     LIBCMTD:crt0msg.obj
 0002:000063e8       ??_C@_1IA@DCJGKHFO@?$AAw?$AAc?$AAs?$AAc?$AAa?$AAt?$AA_?$AAs?$AA?$CI?$AAo?$AAu?$AAt?$AAm?$AAs?$AAg?$AA?0?$AA?5?$AA?$CI?$AAs?$AAi?$AAz?$AAe?$AAo?$AAf?$AA?$CI?$AAo?$AAu?$AAt?$AAm?$AAs?$AAg?$AA?$CJ@ 004343e8     LIBCMTD:crt0msg.obj
 0002:00006468       ??_C@_1HI@FLHKGEBE@?$AAw?$AAc?$AAs?$AAn?$AAc?$AAp?$AAy?$AA_?$AAs?$AA?$CI?$AAp?$AAc?$AAh?$AA?0?$AA?5?$AAp?$AAr?$AAo?$AAg?$AAn?$AAa?$AAm?$AAe?$AA_?$AAs?$AAi?$AAz?$AAe?$AA?5?$AA?9?$AA?5?$AA?$CI@ 00434468     LIBCMTD:crt0msg.obj
 0002:000064e0       ??_C@_1HK@FJJNAABO@?$AAw?$AAc?$AAs?$AAc?$AAp?$AAy?$AA_?$AAs?$AA?$CI?$AAp?$AAr?$AAo?$AAg?$AAn?$AAa?$AAm?$AAe?$AA?0?$AA?5?$AAp?$AAr?$AAo?$AAg?$AAn?$AAa?$AAm?$AAe?$AA_?$AAs?$AAi?$AAz?$AAe@ 004344e0     LIBCMTD:crt0msg.obj
 0002:0000655c       ??_C@_1DE@JNGNBFGO@?$AAR?$AAu?$AAn?$AAt?$AAi?$AAm?$AAe?$AA?5?$AAE?$AAr?$AAr?$AAo?$AAr?$AA?$CB?$AA?6?$AA?6?$AAP?$AAr?$AAo?$AAg?$AAr?$AAa?$AAm?$AA?3?$AA?5?$AA?$AA@ 0043455c     LIBCMTD:crt0msg.obj
 0002:00006590       ??_C@_1KO@BKLCKNFL@?$AAw?$AAc?$AAs?$AAc?$AAp?$AAy?$AA_?$AAs?$AA?$CI?$AAo?$AAu?$AAt?$AAm?$AAs?$AAg?$AA?0?$AA?5?$AA?$CI?$AAs?$AAi?$AAz?$AAe?$AAo?$AAf?$AA?$CI?$AAo?$AAu?$AAt?$AAm?$AAs?$AAg?$AA?$CJ@ 00434590     LIBCMTD:crt0msg.obj
 0002:00006640       ??_C@_1BI@EAHMBMEC@?$AA_?$AAN?$AAM?$AAS?$AAG?$AA_?$AAW?$AAR?$AAI?$AAT?$AAE?$AA?$AA@ 00434640     LIBCMTD:crt0msg.obj
 0002:00006658       ??_C@_1GC@HKOJBOFF@?$AAf?$AA?3?$AA?2?$AAd?$AAd?$AA?2?$AAv?$AAc?$AAt?$AAo?$AAo?$AAl?$AAs?$AA?2?$AAc?$AAr?$AAt?$AA_?$AAb?$AAl?$AAd?$AA?2?$AAs?$AAe?$AAl?$AAf?$AA_?$AAx?$AA8?$AA6?$AA?2?$AAc@ 00434658     LIBCMTD:crt0msg.obj
 0002:000066bc       ??_C@_0DB@MHMEONEC@f?3?2dd?2vctools?2crt_bld?2self_x86?2c@ 004346bc     LIBCMTD:mbctype.obj
 0002:000066f0       ??_C@_0DC@LMJHGCKC@f?3?2dd?2vctools?2crt_bld?2self_x86?2c@ 004346f0     LIBCMTD:tidtable.obj
 0002:00006724       ??_C@_07PEJMOBNF@FlsFree?$AA@ 00434724     LIBCMTD:tidtable.obj
 0002:0000672c       ??_C@_0M@JCPCPOEF@FlsSetValue?$AA@ 0043472c     LIBCMTD:tidtable.obj
 0002:00006738       ??_C@_0M@GDNOONDI@FlsGetValue?$AA@ 00434738     LIBCMTD:tidtable.obj
 0002:00006744       ??_C@_08KNHFBNJ@FlsAlloc?$AA@ 00434744     LIBCMTD:tidtable.obj
 0002:00006750       ??_C@_1BK@DBDEIDLH@?$AAK?$AAE?$AAR?$AAN?$AAE?$AAL?$AA3?$AA2?$AA?4?$AAD?$AAL?$AAL?$AA?$AA@ 00434750     LIBCMTD:tidtable.obj
 0002:0000676c       ??_C@_0CP@MKONOLCI@f?3?2dd?2vctools?2crt_bld?2self_x86?2c@ 0043476c     LIBCMTD:mlock.obj
 0002:000067a0       ??_C@_1GA@DBECNFG@?$AAf?$AA?3?$AA?2?$AAd?$AAd?$AA?2?$AAv?$AAc?$AAt?$AAo?$AAo?$AAl?$AAs?$AA?2?$AAc?$AAr?$AAt?$AA_?$AAb?$AAl?$AAd?$AA?2?$AAs?$AAe?$AAl?$AAf?$AA_?$AAx?$AA8?$AA6?$AA?2?$AAc@ 004347a0     LIBCMTD:winsig.obj
 0002:00006800       ??_C@_1DO@MLNEDKGB@?$AA?$CI?$AA?$CC?$AAI?$AAn?$AAv?$AAa?$AAl?$AAi?$AAd?$AA?5?$AAs?$AAi?$AAg?$AAn?$AAa?$AAl?$AA?5?$AAo?$AAr?$AA?5?$AAe?$AAr?$AAr?$AAo?$AAr?$AA?$CC?$AA?0?$AA?5?$AA0?$AA?$CJ?$AA?$AA@ 00434800     LIBCMTD:winsig.obj
 0002:00006840       ??_C@_1M@DMJEIKHL@?$AAr?$AAa?$AAi?$AAs?$AAe?$AA?$AA@ 00434840     LIBCMTD:winsig.obj
 0002:00006850       ??_C@_1GO@NGIGJNHH@?$AAs?$AAt?$AAr?$AAn?$AAc?$AAp?$AAy?$AA_?$AAs?$AA?$CI?$AA?$CK?$AAs?$AAt?$AAr?$AAa?$AAd?$AAd?$AAr?$AAe?$AAs?$AAs?$AA?0?$AA?5?$AAo?$AAu?$AAt?$AAs?$AAi?$AAz?$AAe?$AA?0?$AA?5@ 00434850     LIBCMTD:inithelp.obj
 0002:000068c0       ??_C@_1CA@KHHCPEI@?$AA_?$AA_?$AAg?$AAe?$AAt?$AAl?$AAo?$AAc?$AAa?$AAl?$AAe?$AAi?$AAn?$AAf?$AAo?$AA?$AA@ 004348c0     LIBCMTD:inithelp.obj
 0002:000068e0       ??_C@_1GE@PLPIMDHG@?$AAf?$AA?3?$AA?2?$AAd?$AAd?$AA?2?$AAv?$AAc?$AAt?$AAo?$AAo?$AAl?$AAs?$AA?2?$AAc?$AAr?$AAt?$AA_?$AAb?$AAl?$AAd?$AA?2?$AAs?$AAe?$AAl?$AAf?$AA_?$AAx?$AA8?$AA6?$AA?2?$AAc@ 004348e0     LIBCMTD:inithelp.obj
 0002:00006944       ??_C@_0DC@CFDMMFIG@f?3?2dd?2vctools?2crt_bld?2self_x86?2c@ 00434944     LIBCMTD:inithelp.obj
 0002:00006978       __pDestructExceptionObject 00434978     LIBCMTD:frame.obj
 0002:0000697c       ??_C@_0O@DPKOEFFH@bad?5exception?$AA@ 0043497c     LIBCMTD:frame.obj
 0002:00006990       ??_7bad_exception@std@@6B@ 00434990     LIBCMTD:frame.obj
 0002:00006998       ??_C@_0DA@NBLAKPEL@f?3?2dd?2vctools?2crt_bld?2self_x86?2c@ 00434998     LIBCMTD:ioinit.obj
 0002:000069c8       ??_C@_1HO@MLMGPAFH@?$AA?$CI?$AA?$CC?$AAi?$AAn?$AAc?$AAo?$AAn?$AAs?$AAi?$AAs?$AAt?$AAe?$AAn?$AAt?$AA?5?$AAI?$AAO?$AAB?$AA?5?$AAf?$AAi?$AAe?$AAl?$AAd?$AAs?$AA?$CC?$AA?0?$AA?5?$AAs?$AAt?$AAr?$AAe@ 004349c8     LIBCMTD:_flsbuf.obj
 0002:00006a48       ??_C@_1GC@GNCCMPNN@?$AAf?$AA?3?$AA?2?$AAd?$AAd?$AA?2?$AAv?$AAc?$AAt?$AAo?$AAo?$AAl?$AAs?$AA?2?$AAc?$AAr?$AAt?$AA_?$AAb?$AAl?$AAd?$AA?2?$AAs?$AAe?$AAl?$AAf?$AA_?$AAx?$AA8?$AA6?$AA?2?$AAc@ 00434a48     LIBCMTD:_flsbuf.obj
 0002:00006ab0       ??_C@_1JE@ECKHFIFP@?$AA?$CI?$AA?$CC?$AAI?$AAn?$AAv?$AAa?$AAl?$AAi?$AAd?$AA?5?$AAf?$AAi?$AAl?$AAe?$AA?5?$AAd?$AAe?$AAs?$AAc?$AAr?$AAi?$AAp?$AAt?$AAo?$AAr?$AA?4?$AA?5?$AAF?$AAi?$AAl?$AAe?$AA?5@ 00434ab0     LIBCMTD:write.obj
 0002:00006b44       ??_C@_1CM@OKGMMMDH@?$AA?$CI?$AA_?$AAo?$AAs?$AAf?$AAi?$AAl?$AAe?$AA?$CI?$AAf?$AAh?$AA?$CJ?$AA?5?$AA?$CG?$AA?5?$AAF?$AAO?$AAP?$AAE?$AAN?$AA?$CJ?$AA?$AA@ 00434b44     LIBCMTD:write.obj
 0002:00006b70       ??_C@_1O@KOFKDHPL@?$AA_?$AAw?$AAr?$AAi?$AAt?$AAe?$AA?$AA@ 00434b70     LIBCMTD:write.obj
 0002:00006b80       ??_C@_1FO@EPLDPDDL@?$AAf?$AA?3?$AA?2?$AAd?$AAd?$AA?2?$AAv?$AAc?$AAt?$AAo?$AAo?$AAl?$AAs?$AA?2?$AAc?$AAr?$AAt?$AA_?$AAb?$AAl?$AAd?$AA?2?$AAs?$AAe?$AAl?$AAf?$AA_?$AAx?$AA8?$AA6?$AA?2?$AAc@ 00434b80     LIBCMTD:write.obj
 0002:00006be0       ??_C@_1FO@LPCLHKGE@?$AA?$CI?$AAf?$AAh?$AA?5?$AA?$DO?$AA?$DN?$AA?5?$AA0?$AA?5?$AA?$CG?$AA?$CG?$AA?5?$AA?$CI?$AAu?$AAn?$AAs?$AAi?$AAg?$AAn?$AAe?$AAd?$AA?$CJ?$AAf?$AAh?$AA?5?$AA?$DM?$AA?5?$AA?$CI?$AAu?$AAn?$AAs?$AAi@ 00434be0     LIBCMTD:write.obj
 0002:00006c40       ??_C@_1DI@CNMHHHLG@?$AAi?$AAs?$AAl?$AAe?$AAa?$AAd?$AAb?$AAy?$AAt?$AAe?$AA?$CI?$AA_?$AAd?$AAb?$AAc?$AAs?$AAB?$AAu?$AAf?$AAf?$AAe?$AAr?$AA?$CI?$AAf?$AAh?$AA?$CJ?$AA?$CJ?$AA?$AA@ 00434c40     LIBCMTD:write.obj
 0002:00006c78       ??_C@_1CC@EEOLPHGO@?$AA?$CI?$AA?$CI?$AAc?$AAn?$AAt?$AA?5?$AA?$CG?$AA?5?$AA1?$AA?$CJ?$AA?5?$AA?$DN?$AA?$DN?$AA?5?$AA0?$AA?$CJ?$AA?$AA@ 00434c78     LIBCMTD:write.obj
 0002:00006c9c       ??_C@_1BM@NCANHCIP@?$AA_?$AAw?$AAr?$AAi?$AAt?$AAe?$AA_?$AAn?$AAo?$AAl?$AAo?$AAc?$AAk?$AA?$AA@ 00434c9c     LIBCMTD:write.obj
 0002:00006cb8       ??_C@_1BM@KFJLMBPG@?$AA?$CI?$AAb?$AAu?$AAf?$AA?5?$AA?$CB?$AA?$DN?$AA?5?$AAN?$AAU?$AAL?$AAL?$AA?$CJ?$AA?$AA@ 00434cb8     LIBCMTD:write.obj
 0002:00006cd4       ??_C@_1BA@JGHIEKKM@?$AA_?$AAf?$AAi?$AAl?$AAe?$AAn?$AAo?$AA?$AA@ 00434cd4     LIBCMTD:fileno.obj
 0002:00006ce8       ??_C@_1GA@PBJHELNC@?$AAf?$AA?3?$AA?2?$AAd?$AAd?$AA?2?$AAv?$AAc?$AAt?$AAo?$AAo?$AAl?$AAs?$AA?2?$AAc?$AAr?$AAt?$AA_?$AAb?$AAl?$AAd?$AA?2?$AAs?$AAe?$AAl?$AAf?$AA_?$AAx?$AA8?$AA6?$AA?2?$AAc@ 00434ce8     LIBCMTD:fileno.obj
 0002:00006d48       ??_C@_0DB@JEHOCBEJ@f?3?2dd?2vctools?2crt_bld?2self_x86?2c@ 00434d48     LIBCMTD:_getbuf.obj
 0002:00006d80       ??_C@_1GC@DKMGNNCC@?$AAf?$AA?3?$AA?2?$AAd?$AAd?$AA?2?$AAv?$AAc?$AAt?$AAo?$AAo?$AAl?$AAs?$AA?2?$AAc?$AAr?$AAt?$AA_?$AAb?$AAl?$AAd?$AA?2?$AAs?$AAe?$AAl?$AAf?$AA_?$AAx?$AA8?$AA6?$AA?2?$AAc@ 00434d80     LIBCMTD:_getbuf.obj
 0002:00006de4       ??_C@_1BA@IIKEPOGH@?$AA_?$AAf?$AAi?$AAl?$AAb?$AAu?$AAf?$AA?$AA@ 00434de4     LIBCMTD:_filbuf.obj
 0002:00006df8       ??_C@_1GC@CHFNJKFB@?$AAf?$AA?3?$AA?2?$AAd?$AAd?$AA?2?$AAv?$AAc?$AAt?$AAo?$AAo?$AAl?$AAs?$AA?2?$AAc?$AAr?$AAt?$AA_?$AAb?$AAl?$AAd?$AA?2?$AAs?$AAe?$AAl?$AAf?$AA_?$AAx?$AA8?$AA6?$AA?2?$AAc@ 00434df8     LIBCMTD:_filbuf.obj
 0002:00006e5c       ??_C@_1BE@DHFIIAMO@?$AA_?$AAf?$AAt?$AAe?$AAl?$AAl?$AAi?$AA6?$AA4?$AA?$AA@ 00434e5c     LIBCMTD:ftelli64.obj
 0002:00006e70       ??_C@_1GE@GDLBAPK@?$AAf?$AA?3?$AA?2?$AAd?$AAd?$AA?2?$AAv?$AAc?$AAt?$AAo?$AAo?$AAl?$AAs?$AA?2?$AAc?$AAr?$AAt?$AA_?$AAb?$AAl?$AAd?$AA?2?$AAs?$AAe?$AAl?$AAf?$AA_?$AAx?$AA8?$AA6?$AA?2?$AAc@ 00434e70     LIBCMTD:ftelli64.obj
 0002:00006ed4       ??_C@_1BE@KHFBJMNM@?$AA_?$AAl?$AAs?$AAe?$AAe?$AAk?$AAi?$AA6?$AA4?$AA?$AA@ 00434ed4     LIBCMTD:lseeki64.obj
 0002:00006ee8       ??_C@_1GE@MINKPNPH@?$AAf?$AA?3?$AA?2?$AAd?$AAd?$AA?2?$AAv?$AAc?$AAt?$AAo?$AAo?$AAl?$AAs?$AA?2?$AAc?$AAr?$AAt?$AA_?$AAb?$AAl?$AAd?$AA?2?$AAs?$AAe?$AAl?$AAf?$AA_?$AAx?$AA8?$AA6?$AA?2?$AAc@ 00434ee8     LIBCMTD:lseeki64.obj
 0002:00006f50       ??_C@_1GE@MIMBMOF@?$AAf?$AA?3?$AA?2?$AAd?$AAd?$AA?2?$AAv?$AAc?$AAt?$AAo?$AAo?$AAl?$AAs?$AA?2?$AAc?$AAr?$AAt?$AA_?$AAb?$AAl?$AAd?$AA?2?$AAs?$AAe?$AAl?$AAf?$AA_?$AAx?$AA8?$AA6?$AA?2?$AAc@ 00434f50     LIBCMTD:_freebuf.obj
 0002:00006fb4       ??_C@_1BO@KIJENGPH@?$AAs?$AAt?$AAr?$AAe?$AAa?$AAm?$AA?5?$AA?$CB?$AA?$DN?$AA?5?$AAN?$AAU?$AAL?$AAL?$AA?$AA@ 00434fb4     LIBCMTD:_freebuf.obj
 0002:00006fd4       ??_C@_1DG@LNNHNFHJ@?$AA?$CI?$AA_?$AAo?$AAs?$AAf?$AAi?$AAl?$AAe?$AA?$CI?$AAf?$AAi?$AAl?$AAe?$AAd?$AAe?$AAs?$AA?$CJ?$AA?5?$AA?$CG?$AA?5?$AAF?$AAO?$AAP?$AAE?$AAN?$AA?$CJ?$AA?$AA@ 00434fd4     LIBCMTD:commit.obj
 0002:0000700c       ??_C@_1BA@FLNMBBIM@?$AA_?$AAc?$AAo?$AAm?$AAm?$AAi?$AAt?$AA?$AA@ 0043500c     LIBCMTD:commit.obj
 0002:00007020       ??_C@_1GA@BOPCOCFN@?$AAf?$AA?3?$AA?2?$AAd?$AAd?$AA?2?$AAv?$AAc?$AAt?$AAo?$AAo?$AAl?$AAs?$AA?2?$AAc?$AAr?$AAt?$AA_?$AAb?$AAl?$AAd?$AA?2?$AAs?$AAe?$AAl?$AAf?$AA_?$AAx?$AA8?$AA6?$AA?2?$AAc@ 00435020     LIBCMTD:commit.obj
 0002:00007080       ??_C@_1HC@KFLBHHBC@?$AA?$CI?$AAf?$AAi?$AAl?$AAe?$AAd?$AAe?$AAs?$AA?5?$AA?$DO?$AA?$DN?$AA?5?$AA0?$AA?5?$AA?$CG?$AA?$CG?$AA?5?$AA?$CI?$AAu?$AAn?$AAs?$AAi?$AAg?$AAn?$AAe?$AAd?$AA?$CJ?$AAf?$AAi?$AAl?$AAe?$AAd@ 00435080     LIBCMTD:commit.obj
 0002:000070f4       ??_C@_1O@EDEJGJBM@?$AA_?$AAc?$AAl?$AAo?$AAs?$AAe?$AA?$AA@ 004350f4     LIBCMTD:close.obj
 0002:00007108       ??_C@_1FO@NNGNFGFH@?$AAf?$AA?3?$AA?2?$AAd?$AAd?$AA?2?$AAv?$AAc?$AAt?$AAo?$AAo?$AAl?$AAs?$AA?2?$AAc?$AAr?$AAt?$AA_?$AAb?$AAl?$AAd?$AA?2?$AAs?$AAe?$AAl?$AAf?$AA_?$AAx?$AA8?$AA6?$AA?2?$AAc@ 00435108     LIBCMTD:close.obj
 0002:00007168       ??_C@_1HG@KNCBMCDD@?$AAf?$AA?3?$AA?2?$AAd?$AAd?$AA?2?$AAv?$AAc?$AAt?$AAo?$AAo?$AAl?$AAs?$AA?2?$AAc?$AAr?$AAt?$AA_?$AAb?$AAl?$AAd?$AA?2?$AAs?$AAe?$AAl?$AAf?$AA_?$AAx?$AA8?$AA6?$AA?2?$AAc@ 00435168     LIBCMTD:typname.obj
 0002:000071e0       ??_C@_1CK@GELGGBDK@?$AAp?$AAN?$AAo?$AAd?$AAe?$AA?9?$AA?$DO?$AA_?$AAN?$AAe?$AAx?$AAt?$AA?5?$AA?$CB?$AA?$DN?$AA?5?$AAN?$AAU?$AAL?$AAL?$AA?$AA@ 004351e0     LIBCMTD:typname.obj
 0002:0000720c       ??_C@_1DM@MADKGDLO@?$AA?$CI?$AAL?$AA?$CC?$AAB?$AAu?$AAf?$AAf?$AAe?$AAr?$AA?5?$AAi?$AAs?$AA?5?$AAt?$AAo?$AAo?$AA?5?$AAs?$AAm?$AAa?$AAl?$AAl?$AA?$CC?$AA?5?$AA?$CG?$AA?$CG?$AA?5?$AA0?$AA?$CJ?$AA?$AA@ 0043520c     LIBCMTD:strcpy_s.obj
 0002:00007248       ??_C@_1CI@HCPHDDLE@?$AAB?$AAu?$AAf?$AAf?$AAe?$AAr?$AA?5?$AAi?$AAs?$AA?5?$AAt?$AAo?$AAo?$AA?5?$AAs?$AAm?$AAa?$AAl?$AAl?$AA?$AA@ 00435248     LIBCMTD:strcpy_s.obj
 0002:00007270       ??_C@_1CG@OFBJMIGJ@?$AA?$CI?$AA?$CI?$AA?$CI?$AA_?$AAS?$AAr?$AAc?$AA?$CJ?$AA?$CJ?$AA?$CJ?$AA?5?$AA?$CB?$AA?$DN?$AA?5?$AAN?$AAU?$AAL?$AAL?$AA?$AA@ 00435270     LIBCMTD:strcpy_s.obj
 0002:00007298       ??_C@_1BC@CFJEPFGF@?$AAs?$AAt?$AAr?$AAc?$AAp?$AAy?$AA_?$AAs?$AA?$AA@ 00435298     LIBCMTD:strcpy_s.obj
 0002:000072b0       ??_C@_1GI@BGBNCIMA@?$AAf?$AA?3?$AA?2?$AAd?$AAd?$AA?2?$AAv?$AAc?$AAt?$AAo?$AAo?$AAl?$AAs?$AA?2?$AAc?$AAr?$AAt?$AA_?$AAb?$AAl?$AAd?$AA?2?$AAs?$AAe?$AAl?$AAf?$AA_?$AAx?$AA8?$AA6?$AA?2?$AAc@ 004352b0     LIBCMTD:strcpy_s.obj
 0002:00007318       ??_C@_1FC@NCPEPIBI@?$AA?$CI?$AA?$CI?$AA_?$AAD?$AAs?$AAt?$AA?$CJ?$AA?$CJ?$AA?5?$AA?$CB?$AA?$DN?$AA?5?$AAN?$AAU?$AAL?$AAL?$AA?5?$AA?$CG?$AA?$CG?$AA?5?$AA?$CI?$AA?$CI?$AA_?$AAS?$AAi?$AAz?$AAe?$AAI?$AAn?$AAB?$AAy?$AAt@ 00435318     LIBCMTD:strcpy_s.obj
 0002:00007370       ??_C@_1GC@FIGJJMEN@?$AAf?$AA?3?$AA?2?$AAd?$AAd?$AA?2?$AAv?$AAc?$AAt?$AAo?$AAo?$AAl?$AAs?$AA?2?$AAc?$AAr?$AAt?$AA_?$AAb?$AAl?$AAd?$AA?2?$AAs?$AAe?$AAl?$AAf?$AA_?$AAx?$AA8?$AA6?$AA?2?$AAc@ 00435370     LIBCMTD:dbgrptt.obj
 0002:000073d8       ??_C@_1HO@PJOFIKFE@?$AA_?$AAC?$AAr?$AAt?$AAD?$AAb?$AAg?$AAR?$AAe?$AAp?$AAo?$AAr?$AAt?$AA?3?$AA?5?$AAS?$AAt?$AAr?$AAi?$AAn?$AAg?$AA?5?$AAt?$AAo?$AAo?$AA?5?$AAl?$AAo?$AAn?$AAg?$AA?5?$AAo@ 004353d8     LIBCMTD:dbgrptt.obj
 0002:00007458       ??_C@_1MC@IGEECMDB@?$AAw?$AAc?$AAs?$AAc?$AAp?$AAy?$AA_?$AAs?$AA?$CI?$AAs?$AAz?$AAO?$AAu?$AAt?$AAM?$AAe?$AAs?$AAs?$AAa?$AAg?$AAe?$AA2?$AA?0?$AA?5?$AA4?$AA0?$AA9?$AA6?$AA?0?$AA?5?$AAL?$AA?$CC@ 00435458     LIBCMTD:dbgrptt.obj
 0002:00007520       ??_C@_1IM@OOKIFKOH@?$AAe?$AA?5?$AA?$DN?$AA?5?$AAm?$AAb?$AAs?$AAt?$AAo?$AAw?$AAc?$AAs?$AA_?$AAs?$AA?$CI?$AA?$CG?$AAr?$AAe?$AAt?$AA?0?$AA?5?$AAs?$AAz?$AAO?$AAu?$AAt?$AAM?$AAe?$AAs?$AAs?$AAa?$AAg@ 00435520     LIBCMTD:dbgrptt.obj
 0002:000075b0       ??_C@_1FI@IBIOIHEG@?$AAs?$AAt?$AAr?$AAc?$AAp?$AAy?$AA_?$AAs?$AA?$CI?$AAs?$AAz?$AAO?$AAu?$AAt?$AAM?$AAe?$AAs?$AAs?$AAa?$AAg?$AAe?$AA?0?$AA?5?$AA4?$AA0?$AA9?$AA6?$AA?0?$AA?5?$AAs?$AAz?$AAL@ 004355b0     LIBCMTD:dbgrptt.obj
 0002:00007608       ??_C@_1JG@CPKCIOEE@?$AAs?$AAt?$AAr?$AAc?$AAp?$AAy?$AA_?$AAs?$AA?$CI?$AAs?$AAz?$AAO?$AAu?$AAt?$AAM?$AAe?$AAs?$AAs?$AAa?$AAg?$AAe?$AA?0?$AA?5?$AA4?$AA0?$AA9?$AA6?$AA?0?$AA?5?$AA?$CC?$AA_?$AAC@ 00435608     LIBCMTD:dbgrptt.obj
 0002:000076a0       ??_C@_0M@IPILFDFN@?$CFs?$CI?$CFd?$CJ?5?3?5?$CFs?$AA@ 004356a0     LIBCMTD:dbgrptt.obj
 0002:000076b0       ??_C@_1EI@LDHJEDO@?$AAs?$AAt?$AAr?$AAc?$AAa?$AAt?$AA_?$AAs?$AA?$CI?$AAs?$AAz?$AAL?$AAi?$AAn?$AAe?$AAM?$AAe?$AAs?$AAs?$AAa?$AAg?$AAe?$AA?0?$AA?5?$AA4?$AA0?$AA9?$AA6?$AA?0?$AA?5?$AA?$CC?$AA?2@ 004356b0     LIBCMTD:dbgrptt.obj
 0002:000076f8       ??_C@_01LIIJDEN@?$AN?$AA@  004356f8     LIBCMTD:dbgrptt.obj
 0002:00007700       ??_C@_1EI@CACDLAFK@?$AAs?$AAt?$AAr?$AAc?$AAa?$AAt?$AA_?$AAs?$AA?$CI?$AAs?$AAz?$AAL?$AAi?$AAn?$AAe?$AAM?$AAe?$AAs?$AAs?$AAa?$AAg?$AAe?$AA?0?$AA?5?$AA4?$AA0?$AA9?$AA6?$AA?0?$AA?5?$AA?$CC?$AA?2@ 00435700     LIBCMTD:dbgrptt.obj
 0002:00007748       ??_C@_1FK@NPGBPOFO@?$AAs?$AAt?$AAr?$AAc?$AAa?$AAt?$AA_?$AAs?$AA?$CI?$AAs?$AAz?$AAL?$AAi?$AAn?$AAe?$AAM?$AAe?$AAs?$AAs?$AAa?$AAg?$AAe?$AA?0?$AA?5?$AA4?$AA0?$AA9?$AA6?$AA?0?$AA?5?$AAs?$AAz@ 00435748     LIBCMTD:dbgrptt.obj
 0002:000077a8       ??_C@_1KK@GIGAEDMO@?$AAs?$AAt?$AAr?$AAc?$AAp?$AAy?$AA_?$AAs?$AA?$CI?$AAs?$AAz?$AAL?$AAi?$AAn?$AAe?$AAM?$AAe?$AAs?$AAs?$AAa?$AAg?$AAe?$AA?0?$AA?5?$AA4?$AA0?$AA9?$AA6?$AA?0?$AA?5?$AAs?$AAz@ 004357a8     LIBCMTD:dbgrptt.obj
 0002:00007854       ??_C@_0BC@LAIDCHCH@Assertion?5failed?$CB?$AA@ 00435854     LIBCMTD:dbgrptt.obj
 0002:00007868       ??_C@_0BD@CAENFOHP@Assertion?5failed?3?5?$AA@ 00435868     LIBCMTD:dbgrptt.obj
 0002:0000787c       ??_C@_0CL@EACFGMNB@_CrtDbgReport?3?5String?5too?5long?5o@ 0043587c     LIBCMTD:dbgrptt.obj
 0002:000078a8       ??_C@_1JI@GAALPGBM@?$AAs?$AAt?$AAr?$AAc?$AAp?$AAy?$AA_?$AAs?$AA?$CI?$AAs?$AAz?$AAU?$AAs?$AAe?$AAr?$AAM?$AAe?$AAs?$AAs?$AAa?$AAg?$AAe?$AA?0?$AA?5?$AA4?$AA0?$AA9?$AA6?$AA?0?$AA?5?$AA?$CC?$AA_@ 004358a8     LIBCMTD:dbgrptt.obj
 0002:00007940       ??_C@_01EEMJAFIK@?6?$AA@   00435940     LIBCMTD:dbgrptt.obj
 0002:00007944       ??_C@_07BHGABMGB@?0?5Line?5?$AA@ 00435944     LIBCMTD:dbgrptt.obj
 0002:0000794c       ??_C@_0P@DFJNDPOP@?$DMfile?5unknown?$DO?$AA@ 0043594c     LIBCMTD:dbgrptt.obj
 0002:0000795c       ??_C@_0CG@BNGLOCEO@Second?5Chance?5Assertion?5Failed?3?5@ 0043595c     LIBCMTD:dbgrptt.obj
 0002:00007988       ??_C@_1FA@JPHJBHEM@?$AA_?$AAi?$AAt?$AAo?$AAa?$AA_?$AAs?$AA?$CI?$AAn?$AAL?$AAi?$AAn?$AAe?$AA?0?$AA?5?$AAs?$AAz?$AAL?$AAi?$AAn?$AAe?$AAM?$AAe?$AAs?$AAs?$AAa?$AAg?$AAe?$AA?0?$AA?5?$AA4?$AA0@ 00435988     LIBCMTD:dbgrptt.obj
 0002:000079d8       ??_C@_1CA@KHJHLKA@?$AA_?$AAV?$AAC?$AAr?$AAt?$AAD?$AAb?$AAg?$AAR?$AAe?$AAp?$AAo?$AAr?$AAt?$AAA?$AA?$AA@ 004359d8     LIBCMTD:dbgrptt.obj
 0002:000079f8       ??_C@_1IE@CPGKIAGP@?$AAw?$AAc?$AAs?$AAt?$AAo?$AAm?$AAb?$AAs?$AA_?$AAs?$AA?$CI?$AA?$CG?$AAr?$AAe?$AAt?$AA?0?$AA?5?$AAs?$AAz?$AAa?$AAO?$AAu?$AAt?$AAM?$AAe?$AAs?$AAs?$AAa?$AAg?$AAe?$AA?0?$AA?5@ 004359f8     LIBCMTD:dbgrptt.obj
 0002:00007a7c       ??_C@_0DP@GNPEPHJD@_CrtDbgReport?3?5String?5too?5long?5o@ 00435a7c     LIBCMTD:dbgrptt.obj
 0002:00007ac0       ??_C@_1MA@LBAMNNOB@?$AAs?$AAt?$AAr?$AAc?$AAp?$AAy?$AA_?$AAs?$AA?$CI?$AAs?$AAz?$AAO?$AAu?$AAt?$AAM?$AAe?$AAs?$AAs?$AAa?$AAg?$AAe?$AA2?$AA?0?$AA?5?$AA4?$AA0?$AA9?$AA6?$AA?0?$AA?5?$AA?$CC?$AA_@ 00435ac0     LIBCMTD:dbgrptt.obj
 0002:00007b80       ??_C@_1JC@EOAPFDLN@?$AAw?$AAc?$AAs?$AAt?$AAo?$AAm?$AAb?$AAs?$AA_?$AAs?$AA?$CI?$AA?$CI?$AA?$CI?$AAv?$AAo?$AAi?$AAd?$AA?5?$AA?$CK?$AA?$CJ?$AA0?$AA?$CJ?$AA?0?$AA?5?$AAs?$AAz?$AAO?$AAu?$AAt?$AAM?$AAe?$AAs@ 00435b80     LIBCMTD:dbgrptt.obj
 0002:00007c18       ??_C@_1FI@DBAIJPJE@?$AAw?$AAc?$AAs?$AAc?$AAp?$AAy?$AA_?$AAs?$AA?$CI?$AAs?$AAz?$AAO?$AAu?$AAt?$AAM?$AAe?$AAs?$AAs?$AAa?$AAg?$AAe?$AA?0?$AA?5?$AA4?$AA0?$AA9?$AA6?$AA?0?$AA?5?$AAs?$AAz?$AAL@ 00435c18     LIBCMTD:dbgrptt.obj
 0002:00007c70       ??_C@_1BI@JIDBEPIG@?$AA?$CF?$AAs?$AA?$CI?$AA?$CF?$AAd?$AA?$CJ?$AA?5?$AA?3?$AA?5?$AA?$CF?$AAs?$AA?$AA@ 00435c70     LIBCMTD:dbgrptt.obj
 0002:00007c88       ??_C@_1EK@PHCBEDKB@?$AAw?$AAc?$AAs?$AAc?$AAa?$AAt?$AA_?$AAs?$AA?$CI?$AAs?$AAz?$AAL?$AAi?$AAn?$AAe?$AAM?$AAe?$AAs?$AAs?$AAa?$AAg?$AAe?$AA?0?$AA?5?$AA4?$AA0?$AA9?$AA6?$AA?0?$AA?5?$AAL?$AA?$CC@ 00435c88     LIBCMTD:dbgrptt.obj
 0002:00007cd4       ??_C@_13CMNBPIDO@?$AA?$AN?$AA?$AA@ 00435cd4     LIBCMTD:dbgrptt.obj
 0002:00007cd8       ??_C@_1EK@NMDFGHMF@?$AAw?$AAc?$AAs?$AAc?$AAa?$AAt?$AA_?$AAs?$AA?$CI?$AAs?$AAz?$AAL?$AAi?$AAn?$AAe?$AAM?$AAe?$AAs?$AAs?$AAa?$AAg?$AAe?$AA?0?$AA?5?$AA4?$AA0?$AA9?$AA6?$AA?0?$AA?5?$AAL?$AA?$CC@ 00435cd8     LIBCMTD:dbgrptt.obj
 0002:00007d28       ??_C@_1FK@HPADHBBD@?$AAw?$AAc?$AAs?$AAc?$AAa?$AAt?$AA_?$AAs?$AA?$CI?$AAs?$AAz?$AAL?$AAi?$AAn?$AAe?$AAM?$AAe?$AAs?$AAs?$AAa?$AAg?$AAe?$AA?0?$AA?5?$AA4?$AA0?$AA9?$AA6?$AA?0?$AA?5?$AAs?$AAz@ 00435d28     LIBCMTD:dbgrptt.obj
 0002:00007d88       ??_C@_1KO@DGAHENCH@?$AAw?$AAc?$AAs?$AAc?$AAp?$AAy?$AA_?$AAs?$AA?$CI?$AAs?$AAz?$AAL?$AAi?$AAn?$AAe?$AAM?$AAe?$AAs?$AAs?$AAa?$AAg?$AAe?$AA?0?$AA?5?$AA4?$AA0?$AA9?$AA6?$AA?0?$AA?5?$AAs?$AAz@ 00435d88     LIBCMTD:dbgrptt.obj
 0002:00007e38       ??_C@_1CG@FFFGGODN@?$AAA?$AAs?$AAs?$AAe?$AAr?$AAt?$AAi?$AAo?$AAn?$AA?5?$AAf?$AAa?$AAi?$AAl?$AAe?$AAd?$AA?3?$AA?5?$AA?$AA@ 00435e38     LIBCMTD:dbgrptt.obj
 0002:00007e60       ??_C@_1JK@KHFABAEO@?$AAw?$AAc?$AAs?$AAc?$AAp?$AAy?$AA_?$AAs?$AA?$CI?$AAs?$AAz?$AAU?$AAs?$AAe?$AAr?$AAM?$AAe?$AAs?$AAs?$AAa?$AAg?$AAe?$AA?0?$AA?5?$AA4?$AA0?$AA9?$AA6?$AA?0?$AA?5?$AAL?$AA?$CC@ 00435e60     LIBCMTD:dbgrptt.obj
 0002:00007efc       ??_C@_1BA@ELMMDCFC@?$AA?0?$AA?5?$AAL?$AAi?$AAn?$AAe?$AA?5?$AA?$AA@ 00435efc     LIBCMTD:dbgrptt.obj
 0002:00007f0c       ??_C@_1BO@OCHMLCAG@?$AA?$DM?$AAf?$AAi?$AAl?$AAe?$AA?5?$AAu?$AAn?$AAk?$AAn?$AAo?$AAw?$AAn?$AA?$DO?$AA?$AA@ 00435f0c     LIBCMTD:dbgrptt.obj
 0002:00007f30       ??_C@_1EM@MJFLEDMB@?$AAS?$AAe?$AAc?$AAo?$AAn?$AAd?$AA?5?$AAC?$AAh?$AAa?$AAn?$AAc?$AAe?$AA?5?$AAA?$AAs?$AAs?$AAe?$AAr?$AAt?$AAi?$AAo?$AAn?$AA?5?$AAF?$AAa?$AAi?$AAl?$AAe?$AAd?$AA?3?$AA?5@ 00435f30     LIBCMTD:dbgrptt.obj
 0002:00007f80       ??_C@_1FA@CNLLOMHI@?$AA_?$AAi?$AAt?$AAo?$AAw?$AA_?$AAs?$AA?$CI?$AAn?$AAL?$AAi?$AAn?$AAe?$AA?0?$AA?5?$AAs?$AAz?$AAL?$AAi?$AAn?$AAe?$AAM?$AAe?$AAs?$AAs?$AAa?$AAg?$AAe?$AA?0?$AA?5?$AA4?$AA0@ 00435f80     LIBCMTD:dbgrptt.obj
 0002:00007fd0       ??_C@_1CA@HPALHDOD@?$AA_?$AAV?$AAC?$AAr?$AAt?$AAD?$AAb?$AAg?$AAR?$AAe?$AAp?$AAo?$AAr?$AAt?$AAW?$AA?$AA@ 00435fd0     LIBCMTD:dbgrptt.obj
 0002:00007ff0       ??_C@_0BI@DFKBFLJE@GetProcessWindowStation?$AA@ 00435ff0     LIBCMTD:crtmboxw.obj
 0002:00008008       ??_C@_0BK@DEKFELLI@GetUserObjectInformationW?$AA@ 00436008     LIBCMTD:crtmboxw.obj
 0002:00008024       ??_C@_0BD@HHGDFDBJ@GetLastActivePopup?$AA@ 00436024     LIBCMTD:crtmboxw.obj
 0002:00008038       ??_C@_0BA@HNOPNCHB@GetActiveWindow?$AA@ 00436038     LIBCMTD:crtmboxw.obj
 0002:00008048       ??_C@_0M@DLDCCGNP@MessageBoxW?$AA@ 00436048     LIBCMTD:crtmboxw.obj
 0002:00008054       ??_C@_1BG@GOEBHBDC@?$AAU?$AAS?$AAE?$AAR?$AA3?$AA2?$AA?4?$AAD?$AAL?$AAL?$AA?$AA@ 00436054     LIBCMTD:crtmboxw.obj
 0002:0000806c       ??_C@_1BC@KIONAFPO@?$AAw?$AAc?$AAs?$AAc?$AAp?$AAy?$AA_?$AAs?$AA?$AA@ 0043606c     LIBCMTD:wcscpy_s.obj
 0002:00008080       ??_C@_1FC@PFMLEHKI@?$AA?$CI?$AA?$CI?$AA_?$AAD?$AAs?$AAt?$AA?$CJ?$AA?$CJ?$AA?5?$AA?$CB?$AA?$DN?$AA?5?$AAN?$AAU?$AAL?$AAL?$AA?5?$AA?$CG?$AA?$CG?$AA?5?$AA?$CI?$AA?$CI?$AA_?$AAS?$AAi?$AAz?$AAe?$AAI?$AAn?$AAW?$AAo?$AAr@ 00436080     LIBCMTD:wcscpy_s.obj
 0002:000080d4       ??_C@_03KHICJKCI@?4?4?4?$AA@ 004360d4     LIBCMTD:dbgrpt.obj
 0002:000080d8       ??_C@_0BB@NAGLCMLI@Assertion?5Failed?$AA@ 004360d8     LIBCMTD:dbgrpt.obj
 0002:000080ec       ??_C@_05NAOIJFC@Error?$AA@ 004360ec     LIBCMTD:dbgrpt.obj
 0002:000080f4       ??_C@_07KGMMFLDN@Warning?$AA@ 004360f4     LIBCMTD:dbgrpt.obj
 0002:00008108       ??_C@_0CD@EBCGLDDL@Microsoft?5Visual?5C?$CL?$CL?5Debug?5Libra@ 00436108     LIBCMTD:dbgrpt.obj
 0002:00008130       ??_C@_0FF@CCONDJCB@Debug?5?$CFs?$CB?6?6Program?3?5?$CFs?$CFs?$CFs?$CFs?$CFs?$CFs@ 00436130     LIBCMTD:dbgrpt.obj
 0002:00008188       ??_C@_09OFBFHMBK@?6Module?3?5?$AA@ 00436188     LIBCMTD:dbgrpt.obj
 0002:00008194       ??_C@_07OPHPPLBG@?6File?3?5?$AA@ 00436194     LIBCMTD:dbgrpt.obj
 0002:0000819c       ??_C@_07DBMPPHDI@?6Line?3?5?$AA@ 0043619c     LIBCMTD:dbgrpt.obj
 0002:000081a4       ??_C@_02PHMGELLB@?6?6?$AA@ 004361a4     LIBCMTD:dbgrpt.obj
 0002:000081a8       ??_C@_0N@MEECIJGN@Expression?3?5?$AA@ 004361a8     LIBCMTD:dbgrpt.obj
 0002:000081b8       ??_C@_0HD@GNBNFCCL@?6?6For?5information?5on?5how?5your?5pr@ 004361b8     LIBCMTD:dbgrpt.obj
 0002:0000822c       ??_C@_0BH@DNAGHKFM@?$DMprogram?5name?5unknown?$DO?$AA@ 0043622c     LIBCMTD:dbgrpt.obj
 0002:00008248       ??_C@_1GG@DLDHOIGE@?$AAs?$AAt?$AAr?$AAc?$AAp?$AAy?$AA_?$AAs?$AA?$CI?$AAs?$AAz?$AAE?$AAx?$AAe?$AAN?$AAa?$AAm?$AAe?$AA?0?$AA?5?$AA2?$AA6?$AA0?$AA?0?$AA?5?$AA?$CC?$AA?$DM?$AAp?$AAr?$AAo?$AAg?$AAr@ 00436248     LIBCMTD:dbgrpt.obj
 0002:000082b0       ??_C@_1CI@IDOKFLAJ@?$AA_?$AA_?$AAc?$AAr?$AAt?$AAM?$AAe?$AAs?$AAs?$AAa?$AAg?$AAe?$AAW?$AAi?$AAn?$AAd?$AAo?$AAw?$AAA?$AA?$AA@ 004362b0     LIBCMTD:dbgrpt.obj
 0002:000082d8       ??_C@_1BK@JMCGJOCC@?$AA_?$AAe?$AAx?$AAp?$AAa?$AAn?$AAd?$AA_?$AAb?$AAa?$AAs?$AAe?$AA?$AA@ 004362d8     LIBCMTD:expand.obj
 0002:000082f8       ??_C@_1GA@EBHFLDNH@?$AAf?$AA?3?$AA?2?$AAd?$AAd?$AA?2?$AAv?$AAc?$AAt?$AAo?$AAo?$AAl?$AAs?$AA?2?$AAc?$AAr?$AAt?$AA_?$AAb?$AAl?$AAd?$AA?2?$AAs?$AAe?$AAl?$AAf?$AA_?$AAx?$AA8?$AA6?$AA?2?$AAc@ 004362f8     LIBCMTD:expand.obj
 0002:00008358       ??_C@_1BO@KFIJIAEA@?$AAp?$AAB?$AAl?$AAo?$AAc?$AAk?$AA?5?$AA?$CB?$AA?$DN?$AA?5?$AAN?$AAU?$AAL?$AAL?$AA?$AA@ 00436358     LIBCMTD:expand.obj
 0002:00008378       ??_C@_1GE@HMAALBPJ@?$AAf?$AA?3?$AA?2?$AAd?$AAd?$AA?2?$AAv?$AAc?$AAt?$AAo?$AAo?$AAl?$AAs?$AA?2?$AAc?$AAr?$AAt?$AA_?$AAb?$AAl?$AAd?$AA?2?$AAs?$AAe?$AAl?$AAf?$AA_?$AAx?$AA8?$AA6?$AA?2?$AAc@ 00436378     LIBCMTD:localref.obj
 0002:000083e0       ??_C@_1BKC@GGIENNAK@?$AA?$CI?$AA?$CI?$AAp?$AAt?$AAl?$AAo?$AAc?$AAi?$AA?9?$AA?$DO?$AAl?$AAc?$AA_?$AAc?$AAa?$AAt?$AAe?$AAg?$AAo?$AAr?$AAy?$AA?$FL?$AAc?$AAa?$AAt?$AAe?$AAg?$AAo?$AAr?$AAy?$AA?$FN?$AA?4@ 004363e0     LIBCMTD:localref.obj
 0002:00008584       ??_C@_1BC@GDGBMEMK@?$AAH?$AAH?$AA?3?$AAm?$AAm?$AA?3?$AAs?$AAs?$AA?$AA@ 00436584     LIBCMTD:nlsdata2.obj
 0002:00008598       ??_C@_1CI@KNAKOEBC@?$AAd?$AAd?$AAd?$AAd?$AA?0?$AA?5?$AAM?$AAM?$AAM?$AAM?$AA?5?$AAd?$AAd?$AA?0?$AA?5?$AAy?$AAy?$AAy?$AAy?$AA?$AA@ 00436598     LIBCMTD:nlsdata2.obj
 0002:000085c0       ??_C@_1BC@IEBCMHCM@?$AAM?$AAM?$AA?1?$AAd?$AAd?$AA?1?$AAy?$AAy?$AA?$AA@ 004365c0     LIBCMTD:nlsdata2.obj
 0002:000085d4       ??_C@_15CLMNNGEL@?$AAP?$AAM?$AA?$AA@ 004365d4     LIBCMTD:nlsdata2.obj
 0002:000085dc       ??_C@_15ODEHAHHF@?$AAA?$AAM?$AA?$AA@ 004365dc     LIBCMTD:nlsdata2.obj
 0002:000085e4       ??_C@_1BC@FEMKIFH@?$AAD?$AAe?$AAc?$AAe?$AAm?$AAb?$AAe?$AAr?$AA?$AA@ 004365e4     LIBCMTD:nlsdata2.obj
 0002:000085f8       ??_C@_1BC@BGLIFPF@?$AAN?$AAo?$AAv?$AAe?$AAm?$AAb?$AAe?$AAr?$AA?$AA@ 004365f8     LIBCMTD:nlsdata2.obj
 0002:0000860c       ??_C@_1BA@EPANDLNG@?$AAO?$AAc?$AAt?$AAo?$AAb?$AAe?$AAr?$AA?$AA@ 0043660c     LIBCMTD:nlsdata2.obj
 0002:0000861c       ??_C@_1BE@DKAAMBJL@?$AAS?$AAe?$AAp?$AAt?$AAe?$AAm?$AAb?$AAe?$AAr?$AA?$AA@ 0043661c     LIBCMTD:nlsdata2.obj
 0002:00008630       ??_C@_1O@PAHLKOAC@?$AAA?$AAu?$AAg?$AAu?$AAs?$AAt?$AA?$AA@ 00436630     LIBCMTD:nlsdata2.obj
 0002:00008640       ??_C@_19BIFMLPCD@?$AAJ?$AAu?$AAl?$AAy?$AA?$AA@ 00436640     LIBCMTD:nlsdata2.obj
 0002:0000864c       ??_C@_19EPFLPGAP@?$AAJ?$AAu?$AAn?$AAe?$AA?$AA@ 0043664c     LIBCMTD:nlsdata2.obj
 0002:00008658       ??_C@_1M@GJNLMHFD@?$AAA?$AAp?$AAr?$AAi?$AAl?$AA?$AA@ 00436658     LIBCMTD:nlsdata2.obj
 0002:00008664       ??_C@_1M@IKEENEDF@?$AAM?$AAa?$AAr?$AAc?$AAh?$AA?$AA@ 00436664     LIBCMTD:nlsdata2.obj
 0002:00008670       ??_C@_1BC@JGDDFFAM@?$AAF?$AAe?$AAb?$AAr?$AAu?$AAa?$AAr?$AAy?$AA?$AA@ 00436670     LIBCMTD:nlsdata2.obj
 0002:00008684       ??_C@_1BA@EFMEIEBA@?$AAJ?$AAa?$AAn?$AAu?$AAa?$AAr?$AAy?$AA?$AA@ 00436684     LIBCMTD:nlsdata2.obj
 0002:00008694       ??_C@_17EGKACKIF@?$AAD?$AAe?$AAc?$AA?$AA@ 00436694     LIBCMTD:nlsdata2.obj
 0002:0000869c       ??_C@_17BBDMLCIG@?$AAN?$AAo?$AAv?$AA?$AA@ 0043669c     LIBCMTD:nlsdata2.obj
 0002:000086a4       ??_C@_17FNLKOI@?$AAO?$AAc?$AAt?$AA?$AA@ 004366a4     LIBCMTD:nlsdata2.obj
 0002:000086ac       ??_C@_17HCHCOKMG@?$AAS?$AAe?$AAp?$AA?$AA@ 004366ac     LIBCMTD:nlsdata2.obj
 0002:000086b4       ??_C@_17ICPELBCN@?$AAA?$AAu?$AAg?$AA?$AA@ 004366b4     LIBCMTD:nlsdata2.obj
 0002:000086bc       ??_C@_17IJPCKHK@?$AAJ?$AAu?$AAl?$AA?$AA@ 004366bc     LIBCMTD:nlsdata2.obj
 0002:000086c4       ??_C@_17KCJGOCPB@?$AAJ?$AAu?$AAn?$AA?$AA@ 004366c4     LIBCMTD:nlsdata2.obj
 0002:000086cc       ??_C@_17PNNKMEED@?$AAM?$AAa?$AAy?$AA?$AA@ 004366cc     LIBCMTD:nlsdata2.obj
 0002:000086d4       ??_C@_17LFPOIHDD@?$AAA?$AAp?$AAr?$AA?$AA@ 004366d4     LIBCMTD:nlsdata2.obj
 0002:000086dc       ??_C@_17CKNLEDEC@?$AAM?$AAa?$AAr?$AA?$AA@ 004366dc     LIBCMTD:nlsdata2.obj
 0002:000086e4       ??_C@_17LMDJEKJN@?$AAF?$AAe?$AAb?$AA?$AA@ 004366e4     LIBCMTD:nlsdata2.obj
 0002:000086ec       ??_C@_17DKNBKCHM@?$AAJ?$AAa?$AAn?$AA?$AA@ 004366ec     LIBCMTD:nlsdata2.obj
 0002:000086f4       ??_C@_1BC@ENMNNPAJ@?$AAS?$AAa?$AAt?$AAu?$AAr?$AAd?$AAa?$AAy?$AA?$AA@ 004366f4     LIBCMTD:nlsdata2.obj
 0002:00008708       ??_C@_1O@PDICJHAG@?$AAF?$AAr?$AAi?$AAd?$AAa?$AAy?$AA?$AA@ 00436708     LIBCMTD:nlsdata2.obj
 0002:00008718       ??_C@_1BC@HHMNLIHE@?$AAT?$AAh?$AAu?$AAr?$AAs?$AAd?$AAa?$AAy?$AA?$AA@ 00436718     LIBCMTD:nlsdata2.obj
 0002:0000872c       ??_C@_1BE@EBOGMDOH@?$AAW?$AAe?$AAd?$AAn?$AAe?$AAs?$AAd?$AAa?$AAy?$AA?$AA@ 0043672c     LIBCMTD:nlsdata2.obj
 0002:00008740       ??_C@_1BA@ENFBFFEK@?$AAT?$AAu?$AAe?$AAs?$AAd?$AAa?$AAy?$AA?$AA@ 00436740     LIBCMTD:nlsdata2.obj
 0002:00008750       ??_C@_1O@MMNBFLIA@?$AAM?$AAo?$AAn?$AAd?$AAa?$AAy?$AA?$AA@ 00436750     LIBCMTD:nlsdata2.obj
 0002:00008760       ??_C@_1O@IHNHDHPB@?$AAS?$AAu?$AAn?$AAd?$AAa?$AAy?$AA?$AA@ 00436760     LIBCMTD:nlsdata2.obj
 0002:00008770       ??_C@_17GGIBDPIH@?$AAS?$AAa?$AAt?$AA?$AA@ 00436770     LIBCMTD:nlsdata2.obj
 0002:00008778       ??_C@_17HFOLPPLP@?$AAF?$AAr?$AAi?$AA?$AA@ 00436778     LIBCMTD:nlsdata2.obj
 0002:00008780       ??_C@_17PDPHAADD@?$AAT?$AAh?$AAu?$AA?$AA@ 00436780     LIBCMTD:nlsdata2.obj
 0002:00008788       ??_C@_17CJEDCEPE@?$AAW?$AAe?$AAd?$AA?$AA@ 00436788     LIBCMTD:nlsdata2.obj
 0002:00008790       ??_C@_17BMKGEGOJ@?$AAT?$AAu?$AAe?$AA?$AA@ 00436790     LIBCMTD:nlsdata2.obj
 0002:00008798       ??_C@_17KBOMKBF@?$AAM?$AAo?$AAn?$AA?$AA@ 00436798     LIBCMTD:nlsdata2.obj
 0002:000087a0       ??_C@_17MBGCMIPB@?$AAS?$AAu?$AAn?$AA?$AA@ 004367a0     LIBCMTD:nlsdata2.obj
 0002:000087a8       ??_C@_08JCCMCCIL@HH?3mm?3ss?$AA@ 004367a8     LIBCMTD:nlsdata2.obj
 0002:000087b4       ??_C@_0BE@CKGJFCPC@dddd?0?5MMMM?5dd?0?5yyyy?$AA@ 004367b4     LIBCMTD:nlsdata2.obj
 0002:000087c8       ??_C@_08BPBNCDIB@MM?1dd?1yy?$AA@ 004367c8     LIBCMTD:nlsdata2.obj
 0002:000087d4       ??_C@_02CJNFDJBF@PM?$AA@   004367d4     LIBCMTD:nlsdata2.obj
 0002:000087d8       ??_C@_02DEDBPAFC@AM?$AA@   004367d8     LIBCMTD:nlsdata2.obj
 0002:000087dc       ??_C@_08EDHMEBNP@December?$AA@ 004367dc     LIBCMTD:nlsdata2.obj
 0002:000087e8       ??_C@_08HCHEGEOA@November?$AA@ 004367e8     LIBCMTD:nlsdata2.obj
 0002:000087f4       ??_C@_07JJNFCEND@October?$AA@ 004367f4     LIBCMTD:nlsdata2.obj
 0002:000087fc       ??_C@_09BHHEALKD@September?$AA@ 004367fc     LIBCMTD:nlsdata2.obj
 0002:00008808       ??_C@_06LBBHFDDG@August?$AA@ 00436808     LIBCMTD:nlsdata2.obj
 0002:00008810       ??_C@_04MIEPOIFP@July?$AA@ 00436810     LIBCMTD:nlsdata2.obj
 0002:00008818       ??_C@_04CNLMGBGM@June?$AA@ 00436818     LIBCMTD:nlsdata2.obj
 0002:00008820       ??_C@_05DMJDNLEJ@April?$AA@ 00436820     LIBCMTD:nlsdata2.obj
 0002:00008828       ??_C@_05HPCKOFNC@March?$AA@ 00436828     LIBCMTD:nlsdata2.obj
 0002:00008830       ??_C@_08GNJGEPFN@February?$AA@ 00436830     LIBCMTD:nlsdata2.obj
 0002:0000883c       ??_C@_07CGJPFGJA@January?$AA@ 0043683c     LIBCMTD:nlsdata2.obj
 0002:00008844       ??_C@_03MKABNOCG@Dec?$AA@  00436844     LIBCMTD:nlsdata2.obj
 0002:00008848       ??_C@_03JPJOFNIA@Nov?$AA@  00436848     LIBCMTD:nlsdata2.obj
 0002:0000884c       ??_C@_03BMAOKBAD@Oct?$AA@  0043684c     LIBCMTD:nlsdata2.obj
 0002:00008850       ??_C@_03GGCAPAJC@Sep?$AA@  00436850     LIBCMTD:nlsdata2.obj
 0002:00008854       ??_C@_03IFJFEIGA@Aug?$AA@  00436854     LIBCMTD:nlsdata2.obj
 0002:00008858       ??_C@_03LBGABGKK@Jul?$AA@  00436858     LIBCMTD:nlsdata2.obj
 0002:0000885c       ??_C@_03IDFGHECI@Jun?$AA@  0043685c     LIBCMTD:nlsdata2.obj
 0002:00008860       ??_C@_03CNMDKL@May?$AA@    00436860     LIBCMTD:nlsdata2.obj
 0002:00008864       ??_C@_03LEOLGMJP@Apr?$AA@  00436864     LIBCMTD:nlsdata2.obj
 0002:00008868       ??_C@_03ODNJBKGA@Mar?$AA@  00436868     LIBCMTD:nlsdata2.obj
 0002:0000886c       ??_C@_03HJBDCHOM@Feb?$AA@  0043686c     LIBCMTD:nlsdata2.obj
 0002:00008870       ??_C@_03JIHJHPIE@Jan?$AA@  00436870     LIBCMTD:nlsdata2.obj
 0002:00008874       ??_C@_08INBOOONO@Saturday?$AA@ 00436874     LIBCMTD:nlsdata2.obj
 0002:00008880       ??_C@_06JECMNKMI@Friday?$AA@ 00436880     LIBCMTD:nlsdata2.obj
 0002:00008888       ??_C@_08HACCIKIA@Thursday?$AA@ 00436888     LIBCMTD:nlsdata2.obj
 0002:00008894       ??_C@_09DLIGFAKA@Wednesday?$AA@ 00436894     LIBCMTD:nlsdata2.obj
 0002:000088a0       ??_C@_07BAAGCFCM@Tuesday?$AA@ 004368a0     LIBCMTD:nlsdata2.obj
 0002:000088a8       ??_C@_06JLEDEDGH@Monday?$AA@ 004368a8     LIBCMTD:nlsdata2.obj
 0002:000088b0       ??_C@_06OOPIFAJ@Sunday?$AA@ 004368b0     LIBCMTD:nlsdata2.obj
 0002:000088b8       ??_C@_03FEFJNEK@Sat?$AA@   004368b8     LIBCMTD:nlsdata2.obj
 0002:000088bc       ??_C@_03IDIOELNC@Fri?$AA@  004368bc     LIBCMTD:nlsdata2.obj
 0002:000088c0       ??_C@_03IOFIKPDN@Thu?$AA@  004368c0     LIBCMTD:nlsdata2.obj
 0002:000088c4       ??_C@_03MHOMLAJA@Wed?$AA@  004368c4     LIBCMTD:nlsdata2.obj
 0002:000088c8       ??_C@_03NAGEINEP@Tue?$AA@  004368c8     LIBCMTD:nlsdata2.obj
 0002:000088cc       ??_C@_03PDAGKDH@Mon?$AA@   004368cc     LIBCMTD:nlsdata2.obj
 0002:000088d0       ??_C@_03KOEHGMDN@Sun?$AA@  004368d0     LIBCMTD:nlsdata2.obj
 0002:000088d8       ??_C@_1GC@CHGJNMHG@?$AAf?$AA?3?$AA?2?$AAd?$AAd?$AA?2?$AAv?$AAc?$AAt?$AAo?$AAo?$AAl?$AAs?$AA?2?$AAc?$AAr?$AAt?$AA_?$AAb?$AAl?$AAd?$AA?2?$AAs?$AAe?$AAl?$AAf?$AA_?$AAx?$AA8?$AA6?$AA?2?$AAc@ 004368d8     LIBCMTD:isctype.obj
 0002:0000893c       ??_C@_1DC@BPLPALML@?$AA?$CI?$AAu?$AAn?$AAs?$AAi?$AAg?$AAn?$AAe?$AAd?$AA?$CJ?$AA?$CI?$AAc?$AA?5?$AA?$CL?$AA?5?$AA1?$AA?$CJ?$AA?5?$AA?$DM?$AA?$DN?$AA?5?$AA2?$AA5?$AA6?$AA?$AA@ 0043693c     LIBCMTD:isctype.obj
 0002:00008970       ??_C@_1CM@HABGDNLJ@?$AAl?$AAe?$AAn?$AAg?$AAt?$AAh?$AA?5?$AA?$DM?$AA?5?$AAs?$AAi?$AAz?$AAe?$AAI?$AAn?$AAT?$AAC?$AAh?$AAa?$AAr?$AAs?$AA?$AA@ 00436970     LIBCMTD:xtows.obj
 0002:0000899c       ??_C@_1DE@PCJGDBBD@?$AA2?$AA?5?$AA?$DM?$AA?$DN?$AA?5?$AAr?$AAa?$AAd?$AAi?$AAx?$AA?5?$AA?$CG?$AA?$CG?$AA?5?$AAr?$AAa?$AAd?$AAi?$AAx?$AA?5?$AA?$DM?$AA?$DN?$AA?5?$AA3?$AA6?$AA?$AA@ 0043699c     LIBCMTD:xtows.obj
 0002:000089d0       ??_C@_1FA@MKGGAGEI@?$AAs?$AAi?$AAz?$AAe?$AAI?$AAn?$AAT?$AAC?$AAh?$AAa?$AAr?$AAs?$AA?5?$AA?$DO?$AA?5?$AA?$CI?$AAs?$AAi?$AAz?$AAe?$AA_?$AAt?$AA?$CJ?$AA?$CI?$AAi?$AAs?$AA_?$AAn?$AAe?$AAg?$AA?5?$AA?$DP@ 004369d0     LIBCMTD:xtows.obj
 0002:00008a20       ??_C@_1O@NCBFODOE@?$AAx?$AAt?$AAo?$AAw?$AA_?$AAs?$AA?$AA@ 00436a20     LIBCMTD:xtows.obj
 0002:00008a30       ??_C@_1FM@MFCBFCGB@?$AAf?$AA?3?$AA?2?$AAd?$AAd?$AA?2?$AAv?$AAc?$AAt?$AAo?$AAo?$AAl?$AAs?$AA?2?$AAc?$AAr?$AAt?$AA_?$AAb?$AAl?$AAd?$AA?2?$AAs?$AAe?$AAl?$AAf?$AA_?$AAx?$AA8?$AA6?$AA?2?$AAc@ 00436a30     LIBCMTD:xtows.obj
 0002:00008a8c       ??_C@_1BI@ICGGMGLK@?$AAb?$AAu?$AAf?$AA?5?$AA?$CB?$AA?$DN?$AA?5?$AAN?$AAU?$AAL?$AAL?$AA?$AA@ 00436a8c     LIBCMTD:xtows.obj
 0002:00008aa8       ??_C@_1FA@MJKDNFFB@?$AA?$CI?$AAL?$AA?$CC?$AAS?$AAt?$AAr?$AAi?$AAn?$AAg?$AA?5?$AAi?$AAs?$AA?5?$AAn?$AAo?$AAt?$AA?5?$AAn?$AAu?$AAl?$AAl?$AA?5?$AAt?$AAe?$AAr?$AAm?$AAi?$AAn?$AAa?$AAt?$AAe?$AAd@ 00436aa8     LIBCMTD:wcsncat_s.obj
 0002:00008af8       ??_C@_1DM@FHLMIEG@?$AAS?$AAt?$AAr?$AAi?$AAn?$AAg?$AA?5?$AAi?$AAs?$AA?5?$AAn?$AAo?$AAt?$AA?5?$AAn?$AAu?$AAl?$AAl?$AA?5?$AAt?$AAe?$AAr?$AAm?$AAi?$AAn?$AAa?$AAt?$AAe?$AAd?$AA?$AA@ 00436af8     LIBCMTD:wcsncat_s.obj
 0002:00008b34       ??_C@_1BE@KPKIKKCF@?$AAw?$AAc?$AAs?$AAn?$AAc?$AAa?$AAt?$AA_?$AAs?$AA?$AA@ 00436b34     LIBCMTD:wcsncat_s.obj
 0002:00008b48       ??_C@_1GK@DICCLCDF@?$AAf?$AA?3?$AA?2?$AAd?$AAd?$AA?2?$AAv?$AAc?$AAt?$AAo?$AAo?$AAl?$AAs?$AA?2?$AAc?$AAr?$AAt?$AA_?$AAb?$AAl?$AAd?$AA?2?$AAs?$AAe?$AAl?$AAf?$AA_?$AAx?$AA8?$AA6?$AA?2?$AAc@ 00436b48     LIBCMTD:wcsncat_s.obj
 0002:00008bb4       ??_C@_1BE@PMMBFFCC@?$AAw?$AAc?$AAs?$AAn?$AAc?$AAp?$AAy?$AA_?$AAs?$AA?$AA@ 00436bb4     LIBCMTD:wcsncpy_s.obj
 0002:00008bc8       ??_C@_1GK@PAJJBKJF@?$AAf?$AA?3?$AA?2?$AAd?$AAd?$AA?2?$AAv?$AAc?$AAt?$AAo?$AAo?$AAl?$AAs?$AA?2?$AAc?$AAr?$AAt?$AA_?$AAb?$AAl?$AAd?$AA?2?$AAs?$AAe?$AAl?$AAf?$AA_?$AAx?$AA8?$AA6?$AA?2?$AAc@ 00436bc8     LIBCMTD:wcsncpy_s.obj
 0002:00008c34       ??_C@_1BC@PLIEPKPJ@?$AAw?$AAc?$AAs?$AAc?$AAa?$AAt?$AA_?$AAs?$AA?$AA@ 00436c34     LIBCMTD:wcscat_s.obj
 0002:00008c48       ??_C@_1GI@NOKGIAGA@?$AAf?$AA?3?$AA?2?$AAd?$AAd?$AA?2?$AAv?$AAc?$AAt?$AAo?$AAo?$AAl?$AAs?$AA?2?$AAc?$AAr?$AAt?$AA_?$AAb?$AAl?$AAd?$AA?2?$AAs?$AAe?$AAl?$AAf?$AA_?$AAx?$AA8?$AA6?$AA?2?$AAc@ 00436c48     LIBCMTD:wcscat_s.obj
 0002:00008cb0       ??_C@_1BC@BHLPNJBO@?$AAf?$AAw?$AAp?$AAr?$AAi?$AAn?$AAt?$AAf?$AA?$AA@ 00436cb0     LIBCMTD:fwprintf.obj
 0002:00008cc8       ??_C@_1GE@NIBJAMDO@?$AAf?$AA?3?$AA?2?$AAd?$AAd?$AA?2?$AAv?$AAc?$AAt?$AAo?$AAo?$AAl?$AAs?$AA?2?$AAc?$AAr?$AAt?$AA_?$AAb?$AAl?$AAd?$AA?2?$AAs?$AAe?$AAl?$AAf?$AA_?$AAx?$AA8?$AA6?$AA?2?$AAc@ 00436cc8     LIBCMTD:fwprintf.obj
 0002:00008d2c       ??_C@_1CA@LFDHAMEM@?$AA_?$AAs?$AAe?$AAt?$AA_?$AAe?$AAr?$AAr?$AAo?$AAr?$AA_?$AAm?$AAo?$AAd?$AAe?$AA?$AA@ 00436d2c     LIBCMTD:errmode.obj
 0002:00008d50       ??_C@_1GC@FGMGFCNB@?$AAf?$AA?3?$AA?2?$AAd?$AAd?$AA?2?$AAv?$AAc?$AAt?$AAo?$AAo?$AAl?$AAs?$AA?2?$AAc?$AAr?$AAt?$AA_?$AAb?$AAl?$AAd?$AA?2?$AAs?$AAe?$AAl?$AAf?$AA_?$AAx?$AA8?$AA6?$AA?2?$AAc@ 00436d50     LIBCMTD:errmode.obj
 0002:00008db4       ??_C@_1DE@BCNCAIK@?$AA?$CI?$AA?$CC?$AAI?$AAn?$AAv?$AAa?$AAl?$AAi?$AAd?$AA?5?$AAe?$AAr?$AAr?$AAo?$AAr?$AA_?$AAm?$AAo?$AAd?$AAe?$AA?$CC?$AA?0?$AA?5?$AA0?$AA?$CJ?$AA?$AA@ 00436db4     LIBCMTD:errmode.obj
 0002:00008de8       ??_C@_1EC@FABAOFFO@?$AA?$CI?$AAc?$AAo?$AAu?$AAn?$AAt?$AA?5?$AA?$DN?$AA?$DN?$AA?5?$AA0?$AA?$CJ?$AA?5?$AA?$HM?$AA?$HM?$AA?5?$AA?$CI?$AAs?$AAt?$AAr?$AAi?$AAn?$AAg?$AA?5?$AA?$CB?$AA?$DN?$AA?5?$AAN?$AAU?$AAL?$AAL?$AA?$CJ@ 00436de8     LIBCMTD:vswprnc.obj
 0002:00008e2c       ??_C@_1CE@IGKFIJFD@?$AA_?$AAv?$AAs?$AAw?$AAp?$AAr?$AAi?$AAn?$AAt?$AAf?$AA_?$AAh?$AAe?$AAl?$AAp?$AAe?$AAr?$AA?$AA@ 00436e2c     LIBCMTD:vswprnc.obj
 0002:00008e50       ??_C@_1GE@KINELFI@?$AAf?$AA?3?$AA?2?$AAd?$AAd?$AA?2?$AAv?$AAc?$AAt?$AAo?$AAo?$AAl?$AAs?$AA?2?$AAc?$AAr?$AAt?$AA_?$AAb?$AAl?$AAd?$AA?2?$AAs?$AAe?$AAl?$AAf?$AA_?$AAx?$AA8?$AA6?$AA?2?$AAc@ 00436e50     LIBCMTD:vswprnc.obj
 0002:00008eb4       ??_C@_1DA@HPBFKMEB@?$AA?$CI?$AA?$CC?$AAB?$AAu?$AAf?$AAf?$AAe?$AAr?$AA?5?$AAt?$AAo?$AAo?$AA?5?$AAs?$AAm?$AAa?$AAl?$AAl?$AA?$CC?$AA?0?$AA?5?$AA0?$AA?$CJ?$AA?$AA@ 00436eb4     LIBCMTD:vswprnc.obj
 0002:00008ee8       ??_C@_1EE@MPCHJFGP@?$AAs?$AAt?$AAr?$AAi?$AAn?$AAg?$AA?5?$AA?$CB?$AA?$DN?$AA?5?$AAN?$AAU?$AAL?$AAL?$AA?5?$AA?$CG?$AA?$CG?$AA?5?$AAs?$AAi?$AAz?$AAe?$AAI?$AAn?$AAW?$AAo?$AAr?$AAd?$AAs?$AA?5?$AA?$DO?$AA?5@ 00436ee8     LIBCMTD:vswprnc.obj
 0002:00008f2c       ??_C@_1BO@MLMCMBKN@?$AAf?$AAo?$AAr?$AAm?$AAa?$AAt?$AA?5?$AA?$CB?$AA?$DN?$AA?5?$AAN?$AAU?$AAL?$AAL?$AA?$AA@ 00436f2c     LIBCMTD:vswprnc.obj
 0002:00008f4c       ??_C@_1CA@BKFKMJFF@?$AA_?$AAv?$AAs?$AAn?$AAw?$AAp?$AAr?$AAi?$AAn?$AAt?$AAf?$AA_?$AAs?$AA_?$AAl?$AA?$AA@ 00436f4c     LIBCMTD:vswprnc.obj
 0002:00008f70       __XcptActTab               00436f70     LIBCMTD:winxfltr.obj
 0002:00009000       __First_FPE_Indx           00437000     LIBCMTD:winxfltr.obj
 0002:00009004       __Num_FPE                  00437004     LIBCMTD:winxfltr.obj
 0002:00009008       __XcptActTabSize           00437008     LIBCMTD:winxfltr.obj
 0002:0000900c       __XcptActTabCount          0043700c     LIBCMTD:winxfltr.obj
 0002:00009010       ??_C@_1DE@MMOGFGHF@?$AAs?$AAt?$AAr?$AAc?$AAp?$AAy?$AA_?$AAs?$AA?$CI?$AA?$CK?$AAe?$AAn?$AAv?$AA?0?$AA?5?$AAc?$AAc?$AAh?$AAa?$AAr?$AAs?$AA?0?$AA?5?$AAp?$AA?$CJ?$AA?$AA@ 00437010     LIBCMTD:stdenvp.obj
 0002:00009044       ??_C@_1BC@GHMCNHHL@?$AA_?$AAs?$AAe?$AAt?$AAe?$AAn?$AAv?$AAp?$AA?$AA@ 00437044     LIBCMTD:stdenvp.obj
 0002:00009058       ??_C@_1GC@DGBFLDBN@?$AAf?$AA?3?$AA?2?$AAd?$AAd?$AA?2?$AAv?$AAc?$AAt?$AAo?$AAo?$AAl?$AAs?$AA?2?$AAc?$AAr?$AAt?$AA_?$AAb?$AAl?$AAd?$AA?2?$AAs?$AAe?$AAl?$AAf?$AA_?$AAx?$AA8?$AA6?$AA?2?$AAc@ 00437058     LIBCMTD:stdenvp.obj
 0002:000090bc       ??_C@_0DB@BMEBJJKP@f?3?2dd?2vctools?2crt_bld?2self_x86?2c@ 004370bc     LIBCMTD:stdenvp.obj
 0002:000090f0       ??_C@_0DB@OEPBJOLC@f?3?2dd?2vctools?2crt_bld?2self_x86?2c@ 004370f0     LIBCMTD:stdargv.obj
 0002:00009124       ??_C@_0CP@PPLBCJDN@f?3?2dd?2vctools?2crt_bld?2self_x86?2c@ 00437124     LIBCMTD:a_env.obj
 0002:00009158       ??_C@_1GE@GJCMHHMH@?$AAf?$AA?3?$AA?2?$AAd?$AAd?$AA?2?$AAv?$AAc?$AAt?$AAo?$AAo?$AAl?$AAs?$AA?2?$AAc?$AAr?$AAt?$AA_?$AAb?$AAl?$AAd?$AA?2?$AAs?$AAe?$AAl?$AAf?$AA_?$AAx?$AA8?$AA6?$AA?2?$AAc@ 00437158     LIBCMTD:inittime.obj
 0002:000091c0       ??_C@_1EE@FDHCFDHN@?$AAp?$AAl?$AAo?$AAc?$AAi?$AA?9?$AA?$DO?$AAl?$AAc?$AA_?$AAt?$AAi?$AAm?$AAe?$AA_?$AAc?$AAu?$AAr?$AAr?$AA?9?$AA?$DO?$AAr?$AAe?$AAf?$AAc?$AAo?$AAu?$AAn?$AAt?$AA?5?$AA?$DO?$AA?5@ 004371c0     LIBCMTD:inittime.obj
 0002:00009204       ??_C@_0DC@KICHHNFK@f?3?2dd?2vctools?2crt_bld?2self_x86?2c@ 00437204     LIBCMTD:inittime.obj
 0002:00009238       ??_C@_1GC@EDJOCBCL@?$AAf?$AA?3?$AA?2?$AAd?$AAd?$AA?2?$AAv?$AAc?$AAt?$AAo?$AAo?$AAl?$AAs?$AA?2?$AAc?$AAr?$AAt?$AA_?$AAb?$AAl?$AAd?$AA?2?$AAs?$AAe?$AAl?$AAf?$AA_?$AAx?$AA8?$AA6?$AA?2?$AAc@ 00437238     LIBCMTD:initnum.obj
 0002:0000929c       ??_C@_1DM@IFKAINNE@?$AAp?$AAl?$AAo?$AAc?$AAi?$AA?9?$AA?$DO?$AAl?$AAc?$AAo?$AAn?$AAv?$AA_?$AAn?$AAu?$AAm?$AA_?$AAr?$AAe?$AAf?$AAc?$AAo?$AAu?$AAn?$AAt?$AA?5?$AA?$DO?$AA?5?$AA0?$AA?$AA@ 0043729c     LIBCMTD:initnum.obj
 0002:000092d8       ??_C@_0DB@KKFMDHFI@f?3?2dd?2vctools?2crt_bld?2self_x86?2c@ 004372d8     LIBCMTD:initnum.obj
 0002:00009310       ??_C@_1GC@IKADOFBJ@?$AAf?$AA?3?$AA?2?$AAd?$AAd?$AA?2?$AAv?$AAc?$AAt?$AAo?$AAo?$AAl?$AAs?$AA?2?$AAc?$AAr?$AAt?$AA_?$AAb?$AAl?$AAd?$AA?2?$AAs?$AAe?$AAl?$AAf?$AA_?$AAx?$AA8?$AA6?$AA?2?$AAc@ 00437310     LIBCMTD:initmon.obj
 0002:00009374       ??_C@_1DM@GKAPAMDO@?$AAp?$AAl?$AAo?$AAc?$AAi?$AA?9?$AA?$DO?$AAl?$AAc?$AAo?$AAn?$AAv?$AA_?$AAm?$AAo?$AAn?$AA_?$AAr?$AAe?$AAf?$AAc?$AAo?$AAu?$AAn?$AAt?$AA?5?$AA?$DO?$AA?5?$AA0?$AA?$AA@ 00437374     LIBCMTD:initmon.obj
 0002:000093b0       ??_C@_0DB@BECNGFDL@f?3?2dd?2vctools?2crt_bld?2self_x86?2c@ 004373b0     LIBCMTD:initmon.obj
 0002:000093e4       ??_C@_1BE@NDMJHJJG@?$AAs?$AAt?$AAr?$AAn?$AAc?$AAp?$AAy?$AA_?$AAs?$AA?$AA@ 004373e4     LIBCMTD:strncpy_s.obj
 0002:000093f8       ??_C@_1BC@HGPNAKGC@?$AAs?$AAt?$AAr?$AAc?$AAa?$AAt?$AA_?$AAs?$AA?$AA@ 004373f8     LIBCMTD:strcat_s.obj
 0002:0000940c       ??_C@_0O@FMJNFNKE@united?9states?$AA@ 0043740c     LIBCMTD:getqloc.obj
 0002:0000941c       ??_C@_0P@NDHFFKCA@united?9kingdom?$AA@ 0043741c     LIBCMTD:getqloc.obj
 0002:0000942c       ??_C@_0BC@HHDADLGF@trinidad?5?$CG?5tobago?$AA@ 0043742c     LIBCMTD:getqloc.obj
 0002:00009440       ??_C@_0M@IOAEBDAC@south?9korea?$AA@ 00437440     LIBCMTD:getqloc.obj
 0002:0000944c       ??_C@_0N@FIELFKIJ@south?9africa?$AA@ 0043744c     LIBCMTD:getqloc.obj
 0002:0000945c       ??_C@_0M@OPNDHCMC@south?5korea?$AA@ 0043745c     LIBCMTD:getqloc.obj
 0002:00009468       ??_C@_0N@MDEOEPFI@south?5africa?$AA@ 00437468     LIBCMTD:getqloc.obj
 0002:00009478       ??_C@_06FKAPCJLB@slovak?$AA@ 00437478     LIBCMTD:getqloc.obj
 0002:00009480       ??_C@_0M@EFJANOAL@puerto?9rico?$AA@ 00437480     LIBCMTD:getqloc.obj
 0002:0000948c       ??_C@_08PGOJKDAI@pr?9china?$AA@ 0043748c     LIBCMTD:getqloc.obj
 0002:00009498       ??_C@_08JHDOMCMI@pr?5china?$AA@ 00437498     LIBCMTD:getqloc.obj
 0002:000094a4       ??_C@_02JHCHFBLL@nz?$AA@   004374a4     LIBCMTD:getqloc.obj
 0002:000094a8       ??_C@_0M@LINHDHKP@new?9zealand?$AA@ 004374a8     LIBCMTD:getqloc.obj
 0002:000094b4       ??_C@_09IIIPPBDB@hong?9kong?$AA@ 004374b4     LIBCMTD:getqloc.obj
 0002:000094c0       ??_C@_07HJLCKBG@holland?$AA@ 004374c0     LIBCMTD:getqloc.obj
 0002:000094c8       ??_C@_0O@LEHGMHAG@great?5britain?$AA@ 004374c8     LIBCMTD:getqloc.obj
 0002:000094d8       ??_C@_07FACOMELA@england?$AA@ 004374d8     LIBCMTD:getqloc.obj
 0002:000094e0       ??_C@_05JIHCEICB@czech?$AA@ 004374e0     LIBCMTD:getqloc.obj
 0002:000094e8       ??_C@_05BBJOBLGB@china?$AA@ 004374e8     LIBCMTD:getqloc.obj
 0002:000094f0       ??_C@_07GPKPHICP@britain?$AA@ 004374f0     LIBCMTD:getqloc.obj
 0002:000094f8       ??_C@_07MHIPBHMG@america?$AA@ 004374f8     LIBCMTD:getqloc.obj
 0002:00009500       ??_C@_03KIALPMKC@usa?$AA@  00437500     LIBCMTD:getqloc.obj
 0002:00009504       ??_C@_02FGJGKGGD@us?$AA@   00437504     LIBCMTD:getqloc.obj
 0002:00009508       ??_C@_02NEINDODK@uk?$AA@   00437508     LIBCMTD:getqloc.obj
 0002:0000950c       ??_C@_05JMPCFJFJ@swiss?$AA@ 0043750c     LIBCMTD:getqloc.obj
 0002:00009514       ??_C@_0BA@HLOCPIOD@swedish?9finland?$AA@ 00437514     LIBCMTD:getqloc.obj
 0002:00009524       ??_C@_0BC@PKCNIABK@spanish?9venezuela?$AA@ 00437524     LIBCMTD:getqloc.obj
 0002:00009538       ??_C@_0BA@GBHHMIJI@spanish?9uruguay?$AA@ 00437538     LIBCMTD:getqloc.obj
 0002:00009548       ??_C@_0BE@BHDOHPMC@spanish?9puerto?5rico?$AA@ 00437548     LIBCMTD:getqloc.obj
 0002:0000955c       ??_C@_0N@KMOIDGGN@spanish?9peru?$AA@ 0043755c     LIBCMTD:getqloc.obj
 0002:0000956c       ??_C@_0BB@HMHLPGPH@spanish?9paraguay?$AA@ 0043756c     LIBCMTD:getqloc.obj
 0002:00009580       ??_C@_0P@MCPKNGFD@spanish?9panama?$AA@ 00437580     LIBCMTD:getqloc.obj
 0002:00009590       ??_C@_0BC@IHOHGAIL@spanish?9nicaragua?$AA@ 00437590     LIBCMTD:getqloc.obj
 0002:000095a4       ??_C@_0P@KLMJDNFJ@spanish?9modern?$AA@ 004375a4     LIBCMTD:getqloc.obj
 0002:000095b4       ??_C@_0BA@BPAPGBCM@spanish?9mexican?$AA@ 004375b4     LIBCMTD:getqloc.obj
 0002:000095c4       ??_C@_0BB@PDECHHHE@spanish?9honduras?$AA@ 004375c4     LIBCMTD:getqloc.obj
 0002:000095d8       ??_C@_0BC@KLHKFGDB@spanish?9guatemala?$AA@ 004375d8     LIBCMTD:getqloc.obj
 0002:000095ec       ??_C@_0BE@MFOOKJAI@spanish?9el?5salvador?$AA@ 004375ec     LIBCMTD:getqloc.obj
 0002:00009600       ??_C@_0BA@FCOKFPFC@spanish?9ecuador?$AA@ 00437600     LIBCMTD:getqloc.obj
 0002:00009610       ??_C@_0BL@PLMGIMOO@spanish?9dominican?5republic?$AA@ 00437610     LIBCMTD:getqloc.obj
 0002:0000962c       ??_C@_0BD@HLGDNMHB@spanish?9costa?5rica?$AA@ 0043762c     LIBCMTD:getqloc.obj
 0002:00009640       ??_C@_0BB@PKCBKCPE@spanish?9colombia?$AA@ 00437640     LIBCMTD:getqloc.obj
 0002:00009654       ??_C@_0O@MCBIJGNE@spanish?9chile?$AA@ 00437654     LIBCMTD:getqloc.obj
 0002:00009664       ??_C@_0BA@BEFEIGJJ@spanish?9bolivia?$AA@ 00437664     LIBCMTD:getqloc.obj
 0002:00009674       ??_C@_0BC@EMECMPD@spanish?9argentina?$AA@ 00437674     LIBCMTD:getqloc.obj
 0002:00009688       ??_C@_0BF@EALFLENP@portuguese?9brazilian?$AA@ 00437688     LIBCMTD:getqloc.obj
 0002:000096a0       ??_C@_0BC@HBLEBLNN@norwegian?9nynorsk?$AA@ 004376a0     LIBCMTD:getqloc.obj
 0002:000096b4       ??_C@_0BB@HMACDDCK@norwegian?9bokmal?$AA@ 004376b4     LIBCMTD:getqloc.obj
 0002:000096c8       ??_C@_09BAFFPPHE@norwegian?$AA@ 004376c8     LIBCMTD:getqloc.obj
 0002:000096d4       ??_C@_0O@EAJFJDFG@italian?9swiss?$AA@ 004376d4     LIBCMTD:getqloc.obj
 0002:000096e4       ??_C@_0O@CNOMPGD@irish?9english?$AA@ 004376e4     LIBCMTD:getqloc.obj
 0002:000096f4       ??_C@_0N@EDHBGCKG@german?9swiss?$AA@ 004376f4     LIBCMTD:getqloc.obj
 0002:00009704       ??_C@_0BC@JACMHNBP@german?9luxembourg?$AA@ 00437704     LIBCMTD:getqloc.obj
 0002:00009718       ??_C@_0BE@HBGMGFEG@german?9lichtenstein?$AA@ 00437718     LIBCMTD:getqloc.obj
 0002:0000972c       ??_C@_0BA@HKKBIBKL@german?9austrian?$AA@ 0043772c     LIBCMTD:getqloc.obj
 0002:0000973c       ??_C@_0N@GCAEPEBK@french?9swiss?$AA@ 0043773c     LIBCMTD:getqloc.obj
 0002:0000974c       ??_C@_0BC@DJFJJCK@french?9luxembourg?$AA@ 0043774c     LIBCMTD:getqloc.obj
 0002:00009760       ??_C@_0BA@NNCEDFIC@french?9canadian?$AA@ 00437760     LIBCMTD:getqloc.obj
 0002:00009770       ??_C@_0P@CMPOCLM@french?9belgian?$AA@ 00437770     LIBCMTD:getqloc.obj
 0002:00009780       ??_C@_0M@GHHDJOK@english?9usa?$AA@ 00437780     LIBCMTD:getqloc.obj
 0002:0000978c       ??_C@_0L@PLDJKEIL@english?9us?$AA@ 0043778c     LIBCMTD:getqloc.obj
 0002:00009798       ??_C@_0L@HJCCDMNC@english?9uk?$AA@ 00437798     LIBCMTD:getqloc.obj
 0002:000097a4       ??_C@_0BK@CKLIAGJB@english?9trinidad?5y?5tobago?$AA@ 004377a4     LIBCMTD:getqloc.obj
 0002:000097c0       ??_C@_0BF@JMJMGNNF@english?9south?5africa?$AA@ 004377c0     LIBCMTD:getqloc.obj
 0002:000097d8       ??_C@_0L@DKIIFDFD@english?9nz?$AA@ 004377d8     LIBCMTD:getqloc.obj
 0002:000097e4       ??_C@_0BA@ONHGJCLH@english?9jamaica?$AA@ 004377e4     LIBCMTD:getqloc.obj
 0002:000097f4       ??_C@_0M@HJBGHOPO@english?9ire?$AA@ 004377f4     LIBCMTD:getqloc.obj
 0002:00009800       ??_C@_0BC@LFEKMIFB@english?9caribbean?$AA@ 00437800     LIBCMTD:getqloc.obj
 0002:00009814       ??_C@_0M@OLDPFKHI@english?9can?$AA@ 00437814     LIBCMTD:getqloc.obj
 0002:00009820       ??_C@_0P@OMDEHBMP@english?9belize?$AA@ 00437820     LIBCMTD:getqloc.obj
 0002:00009830       ??_C@_0M@KFHFPFED@english?9aus?$AA@ 00437830     LIBCMTD:getqloc.obj
 0002:0000983c       ??_C@_0BB@MNMBKDFE@english?9american?$AA@ 0043783c     LIBCMTD:getqloc.obj
 0002:00009850       ??_C@_0O@KIDLNNBA@dutch?9belgian?$AA@ 00437850     LIBCMTD:getqloc.obj
 0002:00009860       ??_C@_0BE@JBKABBMH@chinese?9traditional?$AA@ 00437860     LIBCMTD:getqloc.obj
 0002:00009874       ??_C@_0BC@MJJMPKCG@chinese?9singapore?$AA@ 00437874     LIBCMTD:getqloc.obj
 0002:00009888       ??_C@_0BD@FDKADDCP@chinese?9simplified?$AA@ 00437888     LIBCMTD:getqloc.obj
 0002:0000989c       ??_C@_0BB@DBEFDDME@chinese?9hongkong?$AA@ 0043789c     LIBCMTD:getqloc.obj
 0002:000098b0       ??_C@_07DHNMFMCI@chinese?$AA@ 004378b0     LIBCMTD:getqloc.obj
 0002:000098b8       ??_C@_03FNDDCHI@chi?$AA@   004378b8     LIBCMTD:getqloc.obj
 0002:000098bc       ??_C@_03BMMIADDJ@chh?$AA@  004378bc     LIBCMTD:getqloc.obj
 0002:000098c0       ??_C@_08OAIPJDGI@canadian?$AA@ 004378c0     LIBCMTD:getqloc.obj
 0002:000098cc       ??_C@_07HBPMNPNJ@belgian?$AA@ 004378cc     LIBCMTD:getqloc.obj
 0002:000098d4       ??_C@_0L@OEKOPBEL@australian?$AA@ 004378d4     LIBCMTD:getqloc.obj
 0002:000098e0       ??_C@_0BB@MEIMBEDG@american?9english?$AA@ 004378e0     LIBCMTD:getqloc.obj
 0002:000098f4       ??_C@_0BB@DFMDPDGB@american?5english?$AA@ 004378f4     LIBCMTD:getqloc.obj
 0002:00009908       ??_C@_08IJLOKOLL@american?$AA@ 00437908     LIBCMTD:getqloc.obj
 0002:00009918       ___rg_language             00437918     LIBCMTD:getqloc.obj
 0002:00009b20       ___rg_country              00437b20     LIBCMTD:getqloc.obj
 0002:00009bd8       ___rglangidNotDefault      00437bd8     LIBCMTD:getqloc.obj
 0002:00009bec       ??_C@_0BC@NFIEMBLL@Norwegian?9Nynorsk?$AA@ 00437bec     LIBCMTD:getqloc.obj
 0002:00009c00       ??_C@_1OM@OECHDGCF@?$AAs?$AAt?$AAr?$AAc?$AAp?$AAy?$AA_?$AAs?$AA?$CI?$AAl?$AAp?$AAO?$AAu?$AAt?$AAS?$AAt?$AAr?$AA?9?$AA?$DO?$AAs?$AAz?$AAL?$AAa?$AAn?$AAg?$AAu?$AAa?$AAg?$AAe?$AA?0?$AA?5?$AA?$CI@ 00437c00     LIBCMTD:getqloc.obj
 0002:00009cec       ??_C@_1CO@NJACLALJ@?$AA_?$AA_?$AAg?$AAe?$AAt?$AA_?$AAq?$AAu?$AAa?$AAl?$AAi?$AAf?$AAi?$AAe?$AAd?$AA_?$AAl?$AAo?$AAc?$AAa?$AAl?$AAe?$AA?$AA@ 00437cec     LIBCMTD:getqloc.obj
 0002:00009d20       ??_C@_1GC@FECJGAE@?$AAf?$AA?3?$AA?2?$AAd?$AAd?$AA?2?$AAv?$AAc?$AAt?$AAo?$AAo?$AAl?$AAs?$AA?2?$AAc?$AAr?$AAt?$AA_?$AAb?$AAl?$AAd?$AA?2?$AAs?$AAe?$AAl?$AAf?$AA_?$AAx?$AA8?$AA6?$AA?2?$AAc@ 00437d20     LIBCMTD:getqloc.obj
 0002:00009d84       ??_C@_03NFKLAGEF@OCP?$AA@  00437d84     LIBCMTD:getqloc.obj
 0002:00009d88       ??_C@_03DFHEHBHG@ACP?$AA@  00437d88     LIBCMTD:getqloc.obj
 0002:00009d8c       ??_C@_0BG@KLEAJEFJ@Illegal?5byte?5sequence?$AA@ 00437d8c     LIBCMTD:syserr.obj
 0002:00009da4       ??_C@_0BE@ICMCHPHH@Directory?5not?5empty?$AA@ 00437da4     LIBCMTD:syserr.obj
 0002:00009db8       ??_C@_0BJ@IHEHINLI@Function?5not?5implemented?$AA@ 00437db8     LIBCMTD:syserr.obj
 0002:00009dd4       ??_C@_0BD@CLHBCGPB@No?5locks?5available?$AA@ 00437dd4     LIBCMTD:syserr.obj
 0002:00009de8       ??_C@_0BC@BEDIHIDK@Filename?5too?5long?$AA@ 00437de8     LIBCMTD:syserr.obj
 0002:00009dfc       ??_C@_0BK@JAEBMJJM@Resource?5deadlock?5avoided?$AA@ 00437dfc     LIBCMTD:syserr.obj
 0002:00009e18       ??_C@_0BB@FCBJFCAJ@Result?5too?5large?$AA@ 00437e18     LIBCMTD:syserr.obj
 0002:00009e2c       ??_C@_0N@MMJPGLJK@Domain?5error?$AA@ 00437e2c     LIBCMTD:syserr.obj
 0002:00009e3c       ??_C@_0M@LHEPIIOM@Broken?5pipe?$AA@ 00437e3c     LIBCMTD:syserr.obj
 0002:00009e48       ??_C@_0P@PKCJJLLM@Too?5many?5links?$AA@ 00437e48     LIBCMTD:syserr.obj
 0002:00009e58       ??_C@_0BG@DDBFNKBH@Read?9only?5file?5system?$AA@ 00437e58     LIBCMTD:syserr.obj
 0002:00009e70       ??_C@_0N@FEHLOILP@Invalid?5seek?$AA@ 00437e70     LIBCMTD:syserr.obj
 0002:00009e80       ??_C@_0BI@FEALHKLD@No?5space?5left?5on?5device?$AA@ 00437e80     LIBCMTD:syserr.obj
 0002:00009e98       ??_C@_0P@LFMMIPAE@File?5too?5large?$AA@ 00437e98     LIBCMTD:syserr.obj
 0002:00009ea8       ??_C@_0CE@ONOKNLPF@Inappropriate?5I?1O?5control?5operat@ 00437ea8     LIBCMTD:syserr.obj
 0002:00009ecc       ??_C@_0BE@INBJMKGG@Too?5many?5open?5files?$AA@ 00437ecc     LIBCMTD:syserr.obj
 0002:00009ee0       ??_C@_0BO@IIFBODJE@Too?5many?5open?5files?5in?5system?$AA@ 00437ee0     LIBCMTD:syserr.obj
 0002:00009f00       ??_C@_0BB@HMGGCEBG@Invalid?5argument?$AA@ 00437f00     LIBCMTD:syserr.obj
 0002:00009f14       ??_C@_0P@NDHGCGKE@Is?5a?5directory?$AA@ 00437f14     LIBCMTD:syserr.obj
 0002:00009f24       ??_C@_0BA@CJBACOOL@Not?5a?5directory?$AA@ 00437f24     LIBCMTD:syserr.obj
 0002:00009f34       ??_C@_0P@NLEIANHE@No?5such?5device?$AA@ 00437f34     LIBCMTD:syserr.obj
 0002:00009f44       ??_C@_0O@OAMDNOCP@Improper?5link?$AA@ 00437f44     LIBCMTD:syserr.obj
 0002:00009f54       ??_C@_0M@NAAJNNGH@File?5exists?$AA@ 00437f54     LIBCMTD:syserr.obj
 0002:00009f60       ??_C@_0BA@BIBLIOEK@Resource?5device?$AA@ 00437f60     LIBCMTD:syserr.obj
 0002:00009f70       ??_C@_0O@NIPGCINC@Unknown?5error?$AA@ 00437f70     LIBCMTD:syserr.obj
 0002:00009f80       ??_C@_0M@LOEHLCJD@Bad?5address?$AA@ 00437f80     LIBCMTD:syserr.obj
 0002:00009f8c       ??_C@_0BC@HFNFNKAI@Permission?5denied?$AA@ 00437f8c     LIBCMTD:syserr.obj
 0002:00009fa0       ??_C@_0BB@IMDKMPFB@Not?5enough?5space?$AA@ 00437fa0     LIBCMTD:syserr.obj
 0002:00009fb4       ??_C@_0CB@EPFKGNAK@Resource?5temporarily?5unavailable@ 00437fb4     LIBCMTD:syserr.obj
 0002:00009fd8       ??_C@_0BD@LOHELEP@No?5child?5processes?$AA@ 00437fd8     LIBCMTD:syserr.obj
 0002:00009fec       ??_C@_0BE@NFGDDCEF@Bad?5file?5descriptor?$AA@ 00437fec     LIBCMTD:syserr.obj
 0002:0000a000       ??_C@_0BC@HKPNECK@Exec?5format?5error?$AA@ 00438000     LIBCMTD:syserr.obj
 0002:0000a014       ??_C@_0BC@MFFGCDFL@Arg?5list?5too?5long?$AA@ 00438014     LIBCMTD:syserr.obj
 0002:0000a028       ??_C@_0BK@DPKMCKJ@No?5such?5device?5or?5address?$AA@ 00438028     LIBCMTD:syserr.obj
 0002:0000a044       ??_C@_0BD@KKNFOBBD@Input?1output?5error?$AA@ 00438044     LIBCMTD:syserr.obj
 0002:0000a058       ??_C@_0BK@FJBOAFDK@Interrupted?5function?5call?$AA@ 00438058     LIBCMTD:syserr.obj
 0002:0000a074       ??_C@_0BA@FKIAIBGA@No?5such?5process?$AA@ 00438074     LIBCMTD:syserr.obj
 0002:0000a084       ??_C@_0BK@FMDHKPNF@No?5such?5file?5or?5directory?$AA@ 00438084     LIBCMTD:syserr.obj
 0002:0000a0a0       ??_C@_0BI@BJFCGOHL@Operation?5not?5permitted?$AA@ 004380a0     LIBCMTD:syserr.obj
 0002:0000a0b8       ??_C@_08INEPGKHH@No?5error?$AA@ 004380b8     LIBCMTD:syserr.obj
 0002:0000a0c4       ??_C@_1BA@LEBDGIHM@?$AA_?$AAi?$AAs?$AAa?$AAt?$AAt?$AAy?$AA?$AA@ 004380c4     LIBCMTD:isatty.obj
 0002:0000a0d8       ??_C@_1GA@LPGDJDEN@?$AAf?$AA?3?$AA?2?$AAd?$AAd?$AA?2?$AAv?$AAc?$AAt?$AAo?$AAo?$AAl?$AAs?$AA?2?$AAc?$AAr?$AAt?$AA_?$AAb?$AAl?$AAd?$AA?2?$AAs?$AAe?$AAl?$AAf?$AA_?$AAx?$AA8?$AA6?$AA?2?$AAc@ 004380d8     LIBCMTD:isatty.obj
 0002:0000a138       ??_C@_1CA@CBMNPEO@?$AAs?$AAi?$AAz?$AAe?$AAI?$AAn?$AAB?$AAy?$AAt?$AAe?$AAs?$AA?5?$AA?$DO?$AA?5?$AA0?$AA?$AA@ 00438138     LIBCMTD:wctomb.obj
 0002:0000a158       ??_C@_1BI@IEADNOHF@?$AA_?$AAw?$AAc?$AAt?$AAo?$AAm?$AAb?$AA_?$AAs?$AA_?$AAl?$AA?$AA@ 00438158     LIBCMTD:wctomb.obj
 0002:0000a170       ??_C@_1GA@LDLHPOO@?$AAf?$AA?3?$AA?2?$AAd?$AAd?$AA?2?$AAv?$AAc?$AAt?$AAo?$AAo?$AAl?$AAs?$AA?2?$AAc?$AAr?$AAt?$AA_?$AAb?$AAl?$AAd?$AA?2?$AAs?$AAe?$AAl?$AAf?$AA_?$AAx?$AA8?$AA6?$AA?2?$AAc@ 00438170     LIBCMTD:wctomb.obj
 0002:0000a1d0       ??_C@_1CO@HFMIILNF@?$AAs?$AAi?$AAz?$AAe?$AAI?$AAn?$AAB?$AAy?$AAt?$AAe?$AAs?$AA?5?$AA?$DM?$AA?$DN?$AA?5?$AAI?$AAN?$AAT?$AA_?$AAM?$AAA?$AAX?$AA?$AA@ 004381d0     LIBCMTD:wctomb.obj
 0002:0000a200       ___lookuptable_s           00438200     LIBCMTD:outputs.obj
 0002:0000a260       ??_C@_1FK@LNCFKALM@?$AA?$CI?$AA?$CI?$AAs?$AAt?$AAa?$AAt?$AAe?$AA?5?$AA?$DN?$AA?$DN?$AA?5?$AAS?$AAT?$AA_?$AAN?$AAO?$AAR?$AAM?$AAA?$AAL?$AA?$CJ?$AA?5?$AA?$HM?$AA?$HM?$AA?5?$AA?$CI?$AAs?$AAt?$AAa?$AAt?$AAe?$AA?5@ 00438260     LIBCMTD:outputs.obj
 0002:0000a2c0       ??_C@_1EE@DMAIGNBG@?$AA?$CI?$AA?$CC?$AAI?$AAn?$AAc?$AAo?$AAr?$AAr?$AAe?$AAc?$AAt?$AA?5?$AAf?$AAo?$AAr?$AAm?$AAa?$AAt?$AA?5?$AAs?$AAp?$AAe?$AAc?$AAi?$AAf?$AAi?$AAe?$AAr?$AA?$CC?$AA?0?$AA?5?$AA0@ 004382c0     LIBCMTD:outputs.obj
 0002:0000a304       ??_C@_1BI@COFBLHCG@?$AA_?$AAo?$AAu?$AAt?$AAp?$AAu?$AAt?$AA_?$AAs?$AA_?$AAl?$AA?$AA@ 00438304     LIBCMTD:outputs.obj
 0002:0000a31c       ??_C@_1BO@EMBOBGKE@?$AA_?$AAg?$AAe?$AAt?$AA_?$AAo?$AAs?$AAf?$AAh?$AAa?$AAn?$AAd?$AAl?$AAe?$AA?$AA@ 0043831c     LIBCMTD:osfinfo.obj
 0002:0000a340       ??_C@_1GC@MLKLDJJG@?$AAf?$AA?3?$AA?2?$AAd?$AAd?$AA?2?$AAv?$AAc?$AAt?$AAo?$AAo?$AAl?$AAs?$AA?2?$AAc?$AAr?$AAt?$AA_?$AAb?$AAl?$AAd?$AA?2?$AAs?$AAe?$AAl?$AAf?$AA_?$AAx?$AA8?$AA6?$AA?2?$AAc@ 00438340     LIBCMTD:osfinfo.obj
 0002:0000a3a8       ??_C@_1GA@GFFDGGFH@?$AAf?$AA?3?$AA?2?$AAd?$AAd?$AA?2?$AAv?$AAc?$AAt?$AAo?$AAo?$AAl?$AAs?$AA?2?$AAc?$AAr?$AAt?$AA_?$AAb?$AAl?$AAd?$AA?2?$AAs?$AAe?$AAl?$AAf?$AA_?$AAx?$AA8?$AA6?$AA?2?$AAc@ 004383a8     LIBCMTD:mbtowc.obj
 0002:0000a408       ??_C@_1NC@EINCOKCO@?$AA_?$AAl?$AAo?$AAc?$AA_?$AAu?$AAp?$AAd?$AAa?$AAt?$AAe?$AA?4?$AAG?$AAe?$AAt?$AAL?$AAo?$AAc?$AAa?$AAl?$AAe?$AAT?$AA?$CI?$AA?$CJ?$AA?9?$AA?$DO?$AAl?$AAo?$AAc?$AAi?$AAn?$AAf@ 00438408     LIBCMTD:mbtowc.obj
 0002:0000a4dc       ??_C@_1CC@HBLPFNKH@?$AA?$CI?$AAc?$AAn?$AAt?$AA?5?$AA?$DM?$AA?$DN?$AA?5?$AAI?$AAN?$AAT?$AA_?$AAM?$AAA?$AAX?$AA?$CJ?$AA?$AA@ 004384dc     LIBCMTD:read.obj
 0002:0000a500       ??_C@_1M@NHJOLLDM@?$AA_?$AAr?$AAe?$AAa?$AAd?$AA?$AA@ 00438500     LIBCMTD:read.obj
 0002:0000a510       ??_C@_1FM@NGICBHLO@?$AAf?$AA?3?$AA?2?$AAd?$AAd?$AA?2?$AAv?$AAc?$AAt?$AAo?$AAo?$AAl?$AAs?$AA?2?$AAc?$AAr?$AAt?$AA_?$AAb?$AAl?$AAd?$AA?2?$AAs?$AAe?$AAl?$AAf?$AA_?$AAx?$AA8?$AA6?$AA?2?$AAc@ 00438510     LIBCMTD:read.obj
 0002:0000a56c       ??_C@_0CO@CEGKNHEH@f?3?2dd?2vctools?2crt_bld?2self_x86?2c@ 0043856c     LIBCMTD:read.obj
 0002:0000a59c       ??_C@_1CG@OHLJHGGK@?$AA?$CI?$AAi?$AAn?$AAp?$AAu?$AAt?$AAb?$AAu?$AAf?$AA?5?$AA?$CB?$AA?$DN?$AA?5?$AAN?$AAU?$AAL?$AAL?$AA?$CJ?$AA?$AA@ 0043859c     LIBCMTD:read.obj
 0002:0000a5c4       ??_C@_1BK@JJBHNDKJ@?$AA_?$AAr?$AAe?$AAa?$AAd?$AA_?$AAn?$AAo?$AAl?$AAo?$AAc?$AAk?$AA?$AA@ 004385c4     LIBCMTD:read.obj
 0002:0000a5e0       ??_C@_0BK@CFCOFLF@?5Complete?5Object?5Locator?8?$AA@ 004385e0     LIBCMTD:undname.obj
 0002:0000a5fc       ??_C@_0BN@MECKDCOJ@?5Class?5Hierarchy?5Descriptor?8?$AA@ 004385fc     LIBCMTD:undname.obj
 0002:0000a61c       ??_C@_0BD@LGICGFMM@?5Base?5Class?5Array?8?$AA@ 0043861c     LIBCMTD:undname.obj
 0002:0000a630       ??_C@_0BM@LDKODKLH@?5Base?5Class?5Descriptor?5at?5?$CI?$AA@ 00438630     LIBCMTD:undname.obj
 0002:0000a64c       ??_C@_0BC@DAFEJGAK@?5Type?5Descriptor?8?$AA@ 0043864c     LIBCMTD:undname.obj
 0002:0000a660       ??_C@_0BM@PMGGMLDN@?$GAlocal?5static?5thread?5guard?8?$AA@ 00438660     LIBCMTD:undname.obj
 0002:0000a67c       ??_C@_0CL@FGIJHLCE@?$GAmanaged?5vector?5copy?5constructor@ 0043867c     LIBCMTD:undname.obj
 0002:0000a6a8       ??_C@_0CJ@GJELGAMM@?$GAvector?5vbase?5copy?5constructor?5i@ 004386a8     LIBCMTD:undname.obj
 0002:0000a6d4       ??_C@_0CD@CGAJBKEJ@?$GAvector?5copy?5constructor?5iterato@ 004386d4     LIBCMTD:undname.obj
 0002:0000a6f8       ??_C@_0CB@PDBIFEP@?$GAdynamic?5atexit?5destructor?5for?5?8@ 004386f8     LIBCMTD:undname.obj
 0002:0000a71c       ??_C@_0BL@CLIPGLGB@?$GAdynamic?5initializer?5for?5?8?$AA@ 0043871c     LIBCMTD:undname.obj
 0002:0000a738       ??_C@_0CM@FCBBDIGB@?$GAeh?5vector?5vbase?5copy?5constructo@ 00438738     LIBCMTD:undname.obj
 0002:0000a764       ??_C@_0CG@HLDDJMAG@?$GAeh?5vector?5copy?5constructor?5iter@ 00438764     LIBCMTD:undname.obj
 0002:0000a78c       ??_C@_0CF@IMGKMJNO@?$GAmanaged?5vector?5destructor?5itera@ 0043878c     LIBCMTD:undname.obj
 0002:0000a7b4       ??_C@_0CG@CFDHKGGD@?$GAmanaged?5vector?5constructor?5iter@ 004387b4     LIBCMTD:undname.obj
 0002:0000a7dc       ??_C@_0BN@CKNJLHMB@?$GAplacement?5delete?$FL?$FN?5closure?8?$AA@ 004387dc     LIBCMTD:undname.obj
 0002:0000a7fc       ??_C@_0BL@CNOONJFP@?$GAplacement?5delete?5closure?8?$AA@ 004387fc     LIBCMTD:undname.obj
 0002:0000a818       ??_C@_0P@HJKNJFNN@?$GAomni?5callsig?8?$AA@ 00438818     LIBCMTD:undname.obj
 0002:0000a828       ??_C@_09LBNFPBCA@?5delete?$FL?$FN?$AA@ 00438828     LIBCMTD:undname.obj
 0002:0000a834       ??_C@_06FHBGPFGH@?5new?$FL?$FN?$AA@ 00438834     LIBCMTD:undname.obj
 0002:0000a83c       ??_C@_0CE@IIHCMGGL@?$GAlocal?5vftable?5constructor?5closu@ 0043883c     LIBCMTD:undname.obj
 0002:0000a860       ??_C@_0BA@KKLDJDLB@?$GAlocal?5vftable?8?$AA@ 00438860     LIBCMTD:undname.obj
 0002:0000a870       ??_C@_05KHLCHHI@?$GARTTI?$AA@ 00438870     LIBCMTD:undname.obj
 0002:0000a878       ??_C@_03KLGMFNMG@?$GAEH?$AA@ 00438878     LIBCMTD:undname.obj
 0002:0000a87c       ??_C@_0BA@KBCDOMBN@?$GAudt?5returning?8?$AA@ 0043887c     LIBCMTD:undname.obj
 0002:0000a88c       ??_C@_0BL@LLKPOHJI@?$GAcopy?5constructor?5closure?8?$AA@ 0043888c     LIBCMTD:undname.obj
 0002:0000a8a8       ??_C@_0CH@OOJPLCPH@?$GAeh?5vector?5vbase?5constructor?5ite@ 004388a8     LIBCMTD:undname.obj
 0002:0000a8d0       ??_C@_0CA@GCEOPDGL@?$GAeh?5vector?5destructor?5iterator?8?$AA@ 004388d0     LIBCMTD:undname.obj
 0002:0000a8f0       ??_C@_0CB@JONCMFFK@?$GAeh?5vector?5constructor?5iterator?8@ 004388f0     LIBCMTD:undname.obj
 0002:0000a914       ??_C@_0BL@NILFHHPC@?$GAvirtual?5displacement?5map?8?$AA@ 00438914     LIBCMTD:undname.obj
 0002:0000a930       ??_C@_0CE@IKBNEHA@?$GAvector?5vbase?5constructor?5iterat@ 00438930     LIBCMTD:undname.obj
 0002:0000a954       ??_C@_0BN@LFPFMEDL@?$GAvector?5destructor?5iterator?8?$AA@ 00438954     LIBCMTD:undname.obj
 0002:0000a974       ??_C@_0BO@PFGOCPJJ@?$GAvector?5constructor?5iterator?8?$AA@ 00438974     LIBCMTD:undname.obj
 0002:0000a994       ??_C@_0BN@IMDCHIKM@?$GAscalar?5deleting?5destructor?8?$AA@ 00438994     LIBCMTD:undname.obj
 0002:0000a9b4       ??_C@_0BO@OBMKPJIG@?$GAdefault?5constructor?5closure?8?$AA@ 004389b4     LIBCMTD:undname.obj
 0002:0000a9d4       ??_C@_0BN@DEGPLNFK@?$GAvector?5deleting?5destructor?8?$AA@ 004389d4     LIBCMTD:undname.obj
 0002:0000a9f4       ??_C@_0BD@JDLKDPAB@?$GAvbase?5destructor?8?$AA@ 004389f4     LIBCMTD:undname.obj
 0002:0000aa08       ??_C@_08OBABFOLI@?$GAstring?8?$AA@ 00438a08     LIBCMTD:undname.obj
 0002:0000aa14       ??_C@_0BF@KDPPACIK@?$GAlocal?5static?5guard?8?$AA@ 00438a14     LIBCMTD:undname.obj
 0002:0000aa2c       ??_C@_08LLFFHHDJ@?$GAtypeof?8?$AA@ 00438a2c     LIBCMTD:undname.obj
 0002:0000aa38       ??_C@_07FEEIOKP@?$GAvcall?8?$AA@ 00438a38     LIBCMTD:undname.obj
 0002:0000aa40       ??_C@_09BLBHBJP@?$GAvbtable?8?$AA@ 00438a40     LIBCMTD:undname.obj
 0002:0000aa4c       ??_C@_09IFPLHPGF@?$GAvftable?8?$AA@ 00438a4c     LIBCMTD:undname.obj
 0002:0000aa58       ??_C@_02MHEGNOJ@?$FO?$DN?$AA@ 00438a58     LIBCMTD:undname.obj
 0002:0000aa5c       ??_C@_02DHLNPPGH@?$HM?$DN?$AA@ 00438a5c     LIBCMTD:undname.obj
 0002:0000aa60       ??_C@_02FGJGFEAB@?$CG?$DN?$AA@ 00438a60     LIBCMTD:undname.obj
 0002:0000aa64       ??_C@_03CDNPDDLA@?$DM?$DM?$DN?$AA@ 00438a64     LIBCMTD:undname.obj
 0002:0000aa68       ??_C@_03IKFCCPFF@?$DO?$DO?$DN?$AA@ 00438a68     LIBCMTD:undname.obj
 0002:0000aa6c       ??_C@_02FENAOKFI@?$CF?$DN?$AA@ 00438a6c     LIBCMTD:undname.obj
 0002:0000aa70       ??_C@_02FJEHGPIO@?1?$DN?$AA@ 00438a70     LIBCMTD:undname.obj
 0002:0000aa74       ??_C@_02FKMDLLOA@?9?$DN?$AA@ 00438a74     LIBCMTD:undname.obj
 0002:0000aa78       ??_C@_02FOEOMHFC@?$CL?$DN?$AA@ 00438a78     LIBCMTD:undname.obj
 0002:0000aa7c       ??_C@_02FPIMKNGF@?$CK?$DN?$AA@ 00438a7c     LIBCMTD:undname.obj
 0002:0000aa80       ??_C@_02NONPIBCD@?$HM?$HM?$AA@ 00438a80     LIBCMTD:undname.obj
 0002:0000aa84       ??_C@_02PPKAJPJL@?$CG?$CG?$AA@ 00438a84     LIBCMTD:undname.obj
 0002:0000aa88       ??_C@_01DNKMNLPK@?$HM?$AA@ 00438a88     LIBCMTD:undname.obj
 0002:0000aa8c       ??_C@_01JKBOJNNK@?$FO?$AA@ 00438a8c     LIBCMTD:undname.obj
 0002:0000aa90       ??_C@_01PJKLJHI@?$HO?$AA@  00438a90     LIBCMTD:undname.obj
 0002:0000aa94       ??_C@_02HCKGKOFO@?$CI?$CJ?$AA@ 00438a94     LIBCMTD:undname.obj
 0002:0000aa98       ??_C@_01IHBHIGKO@?0?$AA@   00438a98     LIBCMTD:undname.obj
 0002:0000aa9c       ??_C@_02EEKDKGMJ@?$DO?$DN?$AA@ 00438a9c     LIBCMTD:undname.obj
 0002:0000aaa0       ??_C@_01PPODPGHN@?$DO?$AA@ 00438aa0     LIBCMTD:undname.obj
 0002:0000aaa4       ??_C@_02EHCHHCKH@?$DM?$DN?$AA@ 00438aa4     LIBCMTD:undname.obj
 0002:0000aaa8       ??_C@_01MNNFJEPP@?$DM?$AA@ 00438aa8     LIBCMTD:undname.obj
 0002:0000aaac       ??_C@_01FGNFDNOH@?$CF?$AA@ 00438aac     LIBCMTD:undname.obj
 0002:0000aab0       ??_C@_01KMDKNFGN@?1?$AA@   00438ab0     LIBCMTD:undname.obj
 0002:0000aab4       ??_C@_03MNHNFDLC@?9?$DO?$CK?$AA@ 00438ab4     LIBCMTD:undname.obj
 0002:0000aab8       ??_C@_01HNPIGOCE@?$CG?$AA@ 00438ab8     LIBCMTD:undname.obj
 0002:0000aabc       ??_C@_01MIFGBAGJ@?$CL?$AA@ 00438abc     LIBCMTD:undname.obj
 0002:0000aac0       ??_C@_01JOAMLHOP@?9?$AA@   00438ac0     LIBCMTD:undname.obj
 0002:0000aac4       ??_C@_02BAABKJLB@?9?9?$AA@ 00438ac4     LIBCMTD:undname.obj
 0002:0000aac8       ??_C@_02ECNGHCIF@?$CL?$CL?$AA@ 00438ac8     LIBCMTD:undname.obj
 0002:0000aacc       ??_C@_02HBOOOICD@?9?$DO?$AA@ 00438acc     LIBCMTD:undname.obj
 0002:0000aad0       ??_C@_08LHJFAFGD@operator?$AA@ 00438ad0     LIBCMTD:undname.obj
 0002:0000aadc       ??_C@_02GPECMEKF@?$FL?$FN?$AA@ 00438adc     LIBCMTD:undname.obj
 0002:0000aae0       ??_C@_02FDNJECIE@?$CB?$DN?$AA@ 00438ae0     LIBCMTD:undname.obj
 0002:0000aae4       ??_C@_02EGOFBIJA@?$DN?$DN?$AA@ 00438ae4     LIBCMTD:undname.obj
 0002:0000aae8       ??_C@_01DCLJPIOD@?$CB?$AA@ 00438ae8     LIBCMTD:undname.obj
 0002:0000aaec       ??_C@_02FODMEDOG@?$DM?$DM?$AA@ 00438aec     LIBCMTD:undname.obj
 0002:0000aaf0       ??_C@_02GPIOPFAK@?$DO?$DO?$AA@ 00438af0     LIBCMTD:undname.obj
 0002:0000aaf4       ??_C@_07FPCDHGMM@?5delete?$AA@ 00438af4     LIBCMTD:undname.obj
 0002:0000aafc       ??_C@_04NIHEBCM@?5new?$AA@ 00438afc     LIBCMTD:undname.obj
 0002:0000ab04       ??_C@_0M@GFIIJFMG@__unaligned?$AA@ 00438b04     LIBCMTD:undname.obj
 0002:0000ab10       ??_C@_0L@PILCLIHE@__restrict?$AA@ 00438b10     LIBCMTD:undname.obj
 0002:0000ab1c       ??_C@_07JOMMBBKO@__ptr64?$AA@ 00438b1c     LIBCMTD:undname.obj
 0002:0000ab24       ??_C@_06GHPCKEAG@__eabi?$AA@ 00438b24     LIBCMTD:undname.obj
 0002:0000ab2c       ??_C@_09HIJEGCPM@__clrcall?$AA@ 00438b2c     LIBCMTD:undname.obj
 0002:0000ab38       ??_C@_0L@JMKHOMEK@__fastcall?$AA@ 00438b38     LIBCMTD:undname.obj
 0002:0000ab44       ??_C@_0L@NPHFGOKO@__thiscall?$AA@ 00438b44     LIBCMTD:undname.obj
 0002:0000ab50       ??_C@_09IFJBGAPI@__stdcall?$AA@ 00438b50     LIBCMTD:undname.obj
 0002:0000ab5c       ??_C@_08GHMPAG@__pascal?$AA@ 00438b5c     LIBCMTD:undname.obj
 0002:0000ab68       ??_C@_07KOLFKCDI@__cdecl?$AA@ 00438b68     LIBCMTD:undname.obj
 0002:0000ab70       ??_C@_08EHJDFFNH@__based?$CI?$AA@ 00438b70     LIBCMTD:undname.obj
 0002:0000ad04       ??_C@_1CG@JEHFHLNG@?$AA_?$AAm?$AAb?$AAs?$AAt?$AAo?$AAw?$AAc?$AAs?$AA_?$AAl?$AA_?$AAh?$AAe?$AAl?$AAp?$AAe?$AAr?$AA?$AA@ 00438d04     LIBCMTD:mbstowcs.obj
 0002:0000ad30       ??_C@_1GE@LCCDHBMH@?$AAf?$AA?3?$AA?2?$AAd?$AAd?$AA?2?$AAv?$AAc?$AAt?$AAo?$AAo?$AAl?$AAs?$AA?2?$AAc?$AAr?$AAt?$AA_?$AAb?$AAl?$AAd?$AA?2?$AAs?$AAe?$AAl?$AAf?$AA_?$AAx?$AA8?$AA6?$AA?2?$AAc@ 00438d30     LIBCMTD:mbstowcs.obj
 0002:0000ad94       ??_C@_1BE@EEKACIGI@?$AAs?$AA?5?$AA?$CB?$AA?$DN?$AA?5?$AAN?$AAU?$AAL?$AAL?$AA?$AA@ 00438d94     LIBCMTD:mbstowcs.obj
 0002:0000ada8       ??_C@_1CO@JNPEPJAL@?$AAr?$AAe?$AAt?$AAs?$AAi?$AAz?$AAe?$AA?5?$AA?$DM?$AA?$DN?$AA?5?$AAs?$AAi?$AAz?$AAe?$AAI?$AAn?$AAW?$AAo?$AAr?$AAd?$AAs?$AA?$AA@ 00438da8     LIBCMTD:mbstowcs.obj
 0002:0000add8       ??_C@_1CM@LLECFMFH@?$AAb?$AAu?$AAf?$AAf?$AAe?$AAr?$AAS?$AAi?$AAz?$AAe?$AA?5?$AA?$DM?$AA?$DN?$AA?5?$AAI?$AAN?$AAT?$AA_?$AAM?$AAA?$AAX?$AA?$AA@ 00438dd8     LIBCMTD:mbstowcs.obj
 0002:0000ae04       ??_C@_1BM@PHENIGHD@?$AA_?$AAm?$AAb?$AAs?$AAt?$AAo?$AAw?$AAc?$AAs?$AA_?$AAs?$AA_?$AAl?$AA?$AA@ 00438e04     LIBCMTD:mbstowcs.obj
 0002:0000ae20       ??_C@_1JA@JKDFMOPO@?$AA?$CI?$AAp?$AAw?$AAc?$AAs?$AA?5?$AA?$DN?$AA?$DN?$AA?5?$AAN?$AAU?$AAL?$AAL?$AA?5?$AA?$CG?$AA?$CG?$AA?5?$AAs?$AAi?$AAz?$AAe?$AAI?$AAn?$AAW?$AAo?$AAr?$AAd?$AAs?$AA?5?$AA?$DN?$AA?$DN?$AA?5@ 00438e20     LIBCMTD:mbstowcs.obj
 0002:0000aeb0       ??_C@_1CE@PCFPEIFI@?$AA_?$AAv?$AAs?$AAn?$AAp?$AAr?$AAi?$AAn?$AAt?$AAf?$AA_?$AAh?$AAe?$AAl?$AAp?$AAe?$AAr?$AA?$AA@ 00438eb0     LIBCMTD:vsnprnc.obj
 0002:0000aed8       ??_C@_1GE@DPADKNCG@?$AAf?$AA?3?$AA?2?$AAd?$AAd?$AA?2?$AAv?$AAc?$AAt?$AAo?$AAo?$AAl?$AAs?$AA?2?$AAc?$AAr?$AAt?$AA_?$AAb?$AAl?$AAd?$AA?2?$AAs?$AAe?$AAl?$AAf?$AA_?$AAx?$AA8?$AA6?$AA?2?$AAc@ 00438ed8     LIBCMTD:vsnprnc.obj
 0002:0000af40       ??_C@_1EE@OKCKIGFK@?$AAs?$AAt?$AAr?$AAi?$AAn?$AAg?$AA?5?$AA?$CB?$AA?$DN?$AA?5?$AAN?$AAU?$AAL?$AAL?$AA?5?$AA?$CG?$AA?$CG?$AA?5?$AAs?$AAi?$AAz?$AAe?$AAI?$AAn?$AAB?$AAy?$AAt?$AAe?$AAs?$AA?5?$AA?$DO?$AA?5@ 00438f40     LIBCMTD:vsnprnc.obj
 0002:0000af84       ??_C@_1BM@BLJALHEF@?$AA_?$AAv?$AAs?$AAp?$AAr?$AAi?$AAn?$AAt?$AAf?$AA_?$AAs?$AA_?$AAl?$AA?$AA@ 00438f84     LIBCMTD:vsnprnc.obj
 0002:0000afa0       ??_C@_1BO@MMPELNIM@?$AA_?$AAv?$AAs?$AAn?$AAp?$AAr?$AAi?$AAn?$AAt?$AAf?$AA_?$AAs?$AA_?$AAl?$AA?$AA@ 00438fa0     LIBCMTD:vsnprnc.obj
 0002:0000afc0       ??_C@_1O@GIMBNLEI@?$AAx?$AAt?$AAo?$AAa?$AA_?$AAs?$AA?$AA@ 00438fc0     LIBCMTD:xtoas.obj
 0002:0000afd0       ??_C@_1CG@LLJCAOHF@?$AA_?$AAw?$AAc?$AAs?$AAt?$AAo?$AAm?$AAb?$AAs?$AA_?$AAl?$AA_?$AAh?$AAe?$AAl?$AAp?$AAe?$AAr?$AA?$AA@ 00438fd0     LIBCMTD:wcstombs.obj
 0002:0000aff8       ??_C@_1GE@OAENIBOD@?$AAf?$AA?3?$AA?2?$AAd?$AAd?$AA?2?$AAv?$AAc?$AAt?$AAo?$AAo?$AAl?$AAs?$AA?2?$AAc?$AAr?$AAt?$AA_?$AAb?$AAl?$AAd?$AA?2?$AAs?$AAe?$AAl?$AAf?$AA_?$AAx?$AA8?$AA6?$AA?2?$AAc@ 00438ff8     LIBCMTD:wcstombs.obj
 0002:0000b05c       ??_C@_1BK@OIBENBPM@?$AAp?$AAw?$AAc?$AAs?$AA?5?$AA?$CB?$AA?$DN?$AA?5?$AAN?$AAU?$AAL?$AAL?$AA?$AA@ 0043905c     LIBCMTD:wcstombs.obj
 0002:0000b078       ??_C@_1CM@KEOGBFLI@?$AAs?$AAi?$AAz?$AAe?$AAI?$AAn?$AAB?$AAy?$AAt?$AAe?$AAs?$AA?5?$AA?$DO?$AA?5?$AAr?$AAe?$AAt?$AAs?$AAi?$AAz?$AAe?$AA?$AA@ 00439078     LIBCMTD:wcstombs.obj
 0002:0000b0a4       ??_C@_1BM@BDMCLLDL@?$AA_?$AAw?$AAc?$AAs?$AAt?$AAo?$AAm?$AAb?$AAs?$AA_?$AAs?$AA_?$AAl?$AA?$AA@ 004390a4     LIBCMTD:wcstombs.obj
 0002:0000b0c0       ??_C@_1IM@MFGKHGBP@?$AA?$CI?$AAd?$AAs?$AAt?$AA?5?$AA?$CB?$AA?$DN?$AA?5?$AAN?$AAU?$AAL?$AAL?$AA?5?$AA?$CG?$AA?$CG?$AA?5?$AAs?$AAi?$AAz?$AAe?$AAI?$AAn?$AAB?$AAy?$AAt?$AAe?$AAs?$AA?5?$AA?$DO?$AA?5?$AA0?$AA?$CJ@ 004390c0     LIBCMTD:wcstombs.obj
 0002:0000b14c       ??_C@_1BG@BBCDFOMA@?$AA_?$AAw?$AAo?$AAu?$AAt?$AAp?$AAu?$AAt?$AA_?$AAl?$AA?$AA@ 0043914c     LIBCMTD:woutput.obj
 0002:0000b164       ??_C@_0BK@CIDNPOGP@GetUserObjectInformationA?$AA@ 00439164     LIBCMTD:crtmbox.obj
 0002:0000b180       ??_C@_0M@CHKKJDAI@MessageBoxA?$AA@ 00439180     LIBCMTD:crtmbox.obj
 0002:0000b18c       ??_C@_1BK@ONMFGLDB@?$AA_?$AAw?$AAo?$AAu?$AAt?$AAp?$AAu?$AAt?$AA_?$AAs?$AA_?$AAl?$AA?$AA@ 0043918c     LIBCMTD:woutputs.obj
 0002:0000b1a8       ??_C@_1BG@GLLONOEH@?$AA_?$AAs?$AAt?$AAr?$AAi?$AAc?$AAm?$AAp?$AA_?$AAl?$AA?$AA@ 004391a8     LIBCMTD:stricmp.obj
 0002:0000b1c0       ??_C@_1GC@OILHAOLL@?$AAf?$AA?3?$AA?2?$AAd?$AAd?$AA?2?$AAv?$AAc?$AAt?$AAo?$AAo?$AAl?$AAs?$AA?2?$AAc?$AAr?$AAt?$AA_?$AAb?$AAl?$AAd?$AA?2?$AAs?$AAe?$AAl?$AAf?$AA_?$AAx?$AA8?$AA6?$AA?2?$AAc@ 004391c0     LIBCMTD:stricmp.obj
 0002:0000b224       ??_C@_1BC@JLGKKIIG@?$AA_?$AAs?$AAt?$AAr?$AAi?$AAc?$AAm?$AAp?$AA?$AA@ 00439224     LIBCMTD:stricmp.obj
 0002:0000b238       ??_C@_1CC@JLPHKJPH@?$AAc?$AAo?$AAu?$AAn?$AAt?$AA?5?$AA?$DM?$AA?$DN?$AA?5?$AAI?$AAN?$AAT?$AA_?$AAM?$AAA?$AAX?$AA?$AA@ 00439238     LIBCMTD:strnicmp.obj
 0002:0000b25c       ??_C@_1BI@BJLEPLEF@?$AA_?$AAs?$AAt?$AAr?$AAn?$AAi?$AAc?$AAm?$AAp?$AA_?$AAl?$AA?$AA@ 0043925c     LIBCMTD:strnicmp.obj
 0002:0000b278       ??_C@_1GE@CONPOJMA@?$AAf?$AA?3?$AA?2?$AAd?$AAd?$AA?2?$AAv?$AAc?$AAt?$AAo?$AAo?$AAl?$AAs?$AA?2?$AAc?$AAr?$AAt?$AA_?$AAb?$AAl?$AAd?$AA?2?$AAs?$AAe?$AAl?$AAf?$AA_?$AAx?$AA8?$AA6?$AA?2?$AAc@ 00439278     LIBCMTD:strnicmp.obj
 0002:0000b2dc       ??_C@_1BE@BHJDFFNA@?$AA_?$AAs?$AAt?$AAr?$AAn?$AAi?$AAc?$AAm?$AAp?$AA?$AA@ 004392dc     LIBCMTD:strnicmp.obj
 0002:0000b2f0       ??_C@_1FE@CEHLKAHD@?$AAi?$AAb?$AAa?$AAs?$AAe?$AA?5?$AA?$DN?$AA?$DN?$AA?5?$AA0?$AA?5?$AA?$HM?$AA?$HM?$AA?5?$AA?$CI?$AA2?$AA?5?$AA?$DM?$AA?$DN?$AA?5?$AAi?$AAb?$AAa?$AAs?$AAe?$AA?5?$AA?$CG?$AA?$CG?$AA?5?$AAi?$AAb?$AAa@ 004392f0     LIBCMTD:strtol.obj
 0002:0000b344       ??_C@_1BA@LOLAMAJG@?$AAs?$AAt?$AAr?$AAt?$AAo?$AAx?$AAl?$AA?$AA@ 00439344     LIBCMTD:strtol.obj
 0002:0000b358       ??_C@_1GA@IPHKKOEI@?$AAf?$AA?3?$AA?2?$AAd?$AAd?$AA?2?$AAv?$AAc?$AAt?$AAo?$AAo?$AAl?$AAs?$AA?2?$AAc?$AAr?$AAt?$AA_?$AAb?$AAl?$AAd?$AA?2?$AAs?$AAe?$AAl?$AAf?$AA_?$AAx?$AA8?$AA6?$AA?2?$AAc@ 00439358     LIBCMTD:strtol.obj
 0002:0000b3b8       ??_C@_1BK@LAOAACLJ@?$AAn?$AAp?$AAt?$AAr?$AA?5?$AA?$CB?$AA?$DN?$AA?5?$AAN?$AAU?$AAL?$AAL?$AA?$AA@ 004393b8     LIBCMTD:strtol.obj
 0002:0000b3d4       ??_C@_1BA@BALFACEM@?$AAC?$AAO?$AAN?$AAO?$AAU?$AAT?$AA$?$AA?$AA@ 004393d4     LIBCMTD:initcon.obj
 0002:0000b3e8       __load_config_used         004393e8     LIBCMTD:loadcfg.obj
 0002:0000b484       ??_R1A@?0A@EA@logic_error@std@@8 00439484     libcpmtd:xthrow.obj
 0002:0000b4a0       ??_R3logic_error@std@@8    004394a0     libcpmtd:xthrow.obj
 0002:0000b4b0       ??_R2logic_error@std@@8    004394b0     libcpmtd:xthrow.obj
 0002:0000b4bc       ??_R1A@?0A@EA@exception@std@@8 004394bc     libcpmtd:xthrow.obj
 0002:0000b4d8       ??_R3exception@std@@8      004394d8     libcpmtd:xthrow.obj
 0002:0000b4e8       ??_R2exception@std@@8      004394e8     libcpmtd:xthrow.obj
 0002:0000b4f0       ??_R4logic_error@std@@6B@  004394f0     libcpmtd:xthrow.obj
 0002:0000b504       ??_R4length_error@std@@6B@ 00439504     libcpmtd:xthrow.obj
 0002:0000b518       ??_R3length_error@std@@8   00439518     libcpmtd:xthrow.obj
 0002:0000b528       ??_R2length_error@std@@8   00439528     libcpmtd:xthrow.obj
 0002:0000b538       ??_R1A@?0A@EA@length_error@std@@8 00439538     libcpmtd:xthrow.obj
 0002:0000b554       ??_R4out_of_range@std@@6B@ 00439554     libcpmtd:xthrow.obj
 0002:0000b568       ??_R3out_of_range@std@@8   00439568     libcpmtd:xthrow.obj
 0002:0000b578       ??_R2out_of_range@std@@8   00439578     libcpmtd:xthrow.obj
 0002:0000b588       ??_R1A@?0A@EA@out_of_range@std@@8 00439588     libcpmtd:xthrow.obj
 0002:0000b5a4       ??_R1A@?0A@EA@runtime_error@std@@8 004395a4     libcpmtd:xthrow.obj
 0002:0000b5c0       ??_R3runtime_error@std@@8  004395c0     libcpmtd:xthrow.obj
 0002:0000b5d0       ??_R2runtime_error@std@@8  004395d0     libcpmtd:xthrow.obj
 0002:0000b5dc       ??_R4runtime_error@std@@6B@ 004395dc     libcpmtd:xthrow.obj
 0002:0000b5f0       ??_R4bad_alloc@std@@6B@    004395f0     libcpmtd:xdebug.obj
 0002:0000b604       ??_R3bad_alloc@std@@8      00439604     libcpmtd:xdebug.obj
 0002:0000b614       ??_R2bad_alloc@std@@8      00439614     libcpmtd:xdebug.obj
 0002:0000b620       ??_R1A@?0A@EA@bad_alloc@std@@8 00439620     libcpmtd:xdebug.obj
 0002:0000b63c       ??_R4_Locimp@locale@std@@6B@ 0043963c     libcpmtd:locale0.obj
 0002:0000b650       ??_R3_Locimp@locale@std@@8 00439650     libcpmtd:locale0.obj
 0002:0000b660       ??_R2_Locimp@locale@std@@8 00439660     libcpmtd:locale0.obj
 0002:0000b66c       ??_R1A@?0A@EA@_Locimp@locale@std@@8 0043966c     libcpmtd:locale0.obj
 0002:0000b688       ??_R1A@?0A@EA@facet@locale@std@@8 00439688     libcpmtd:locale0.obj
 0002:0000b6a4       ??_R3facet@locale@std@@8   004396a4     libcpmtd:locale0.obj
 0002:0000b6b4       ??_R2facet@locale@std@@8   004396b4     libcpmtd:locale0.obj
 0002:0000b6bc       ??_R4facet@locale@std@@6B@ 004396bc     libcpmtd:locale0.obj
 0002:0000b6d0       ??_R4_Generic_error_category@std@@6B@ 004396d0     libcpmtd:syserror.obj
 0002:0000b6e4       ??_R3_Generic_error_category@std@@8 004396e4     libcpmtd:syserror.obj
 0002:0000b6f4       ??_R2_Generic_error_category@std@@8 004396f4     libcpmtd:syserror.obj
 0002:0000b700       ??_R1A@?0A@EA@_Generic_error_category@std@@8 00439700     libcpmtd:syserror.obj
 0002:0000b71c       ??_R1A@?0A@EA@error_category@std@@8 0043971c     libcpmtd:syserror.obj
 0002:0000b738       ??_R3error_category@std@@8 00439738     libcpmtd:syserror.obj
 0002:0000b748       ??_R2error_category@std@@8 00439748     libcpmtd:syserror.obj
 0002:0000b750       ??_R4error_category@std@@6B@ 00439750     libcpmtd:syserror.obj
 0002:0000b764       ??_R4_Iostream_error_category@std@@6B@ 00439764     libcpmtd:syserror.obj
 0002:0000b778       ??_R3_Iostream_error_category@std@@8 00439778     libcpmtd:syserror.obj
 0002:0000b788       ??_R2_Iostream_error_category@std@@8 00439788     libcpmtd:syserror.obj
 0002:0000b794       ??_R1A@?0A@EA@_Iostream_error_category@std@@8 00439794     libcpmtd:syserror.obj
 0002:0000b7b0       ??_R4_System_error_category@std@@6B@ 004397b0     libcpmtd:syserror.obj
 0002:0000b7c4       ??_R3_System_error_category@std@@8 004397c4     libcpmtd:syserror.obj
 0002:0000b7d4       ??_R2_System_error_category@std@@8 004397d4     libcpmtd:syserror.obj
 0002:0000b7e4       ??_R1A@?0A@EA@_System_error_category@std@@8 004397e4     libcpmtd:syserror.obj
 0002:0000b800       ??_R4type_info@@6B@        00439800     LIBCMTD:typinfo.obj
 0002:0000b814       ??_R3type_info@@8          00439814     LIBCMTD:typinfo.obj
 0002:0000b824       ??_R2type_info@@8          00439824     LIBCMTD:typinfo.obj
 0002:0000b82c       ??_R1A@?0A@EA@type_info@@8 0043982c     LIBCMTD:typinfo.obj
 0002:0000b848       ??_R4exception@std@@6B@    00439848     LIBCMTD:stdexcpt.obj
 0002:0000b85c       ??_R4bad_cast@std@@6B@     0043985c     LIBCMTD:stdexcpt.obj
 0002:0000b870       ??_R3bad_cast@std@@8       00439870     LIBCMTD:stdexcpt.obj
 0002:0000b880       ??_R2bad_cast@std@@8       00439880     LIBCMTD:stdexcpt.obj
 0002:0000b88c       ??_R1A@?0A@EA@bad_cast@std@@8 0043988c     LIBCMTD:stdexcpt.obj
 0002:0000b8a8       ??_R4bad_exception@std@@6B@ 004398a8     LIBCMTD:frame.obj
 0002:0000b8bc       ??_R3bad_exception@std@@8  004398bc     LIBCMTD:frame.obj
 0002:0000b8cc       ??_R2bad_exception@std@@8  004398cc     LIBCMTD:frame.obj
 0002:0000b8d8       ??_R1A@?0A@EA@bad_exception@std@@8 004398d8     LIBCMTD:frame.obj
 0002:0000b900       ___safe_se_handler_table   00439900     <linker-defined>
 0002:0000b9a8       ___rtc_iaa                 004399a8     LIBCMTD:_initsect_.obj
 0002:0000b9ac       ___rtc_izz                 004399ac     LIBCMTD:_initsect_.obj
 0002:0000b9b0       ___rtc_taa                 004399b0     LIBCMTD:_initsect_.obj
 0002:0000b9b4       ___rtc_tzz                 004399b4     LIBCMTD:_initsect_.obj
 0002:0000bc6c       __TI4?AVfailure@ios_base@std@@ 00439c6c     main.obj
 0002:0000bc7c       __CTA4?AVfailure@ios_base@std@@ 00439c7c     main.obj
 0002:0000bc90       __CT??_R0?AVfailure@ios_base@std@@@8??0failure@ios_base@std@@QAE@ABV012@@Z20 00439c90     main.obj
 0002:0000bcac       __CT??_R0?AVsystem_error@std@@@8??0system_error@std@@QAE@ABV01@@Z20 00439cac     main.obj
 0002:0000bcc8       __CT??_R0?AVruntime_error@std@@@8??0runtime_error@std@@QAE@ABV01@@Z12 00439cc8     main.obj
 0002:0000bce4       __CT??_R0?AVexception@std@@@8??0exception@std@@QAE@ABV01@@Z12 00439ce4     main.obj
 0002:0000be68       __TI2?AVbad_cast@std@@     00439e68     main.obj
 0002:0000be78       __CTA2?AVbad_cast@std@@    00439e78     main.obj
 0002:0000be84       __CT??_R0?AVbad_cast@std@@@8??0bad_cast@std@@QAE@ABV01@@Z12 00439e84     main.obj
 0002:0000bedc       __TI2?AVruntime_error@std@@ 00439edc     main.obj
 0002:0000bf38       __CTA2?AVruntime_error@std@@ 00439f38     main.obj
 0002:0000bfe8       __TI2?AVbad_alloc@std@@    00439fe8     main.obj
 0002:0000bff8       __CTA2?AVbad_alloc@std@@   00439ff8     main.obj
 0002:0000c004       __CT??_R0?AVbad_alloc@std@@@8??0bad_alloc@std@@QAE@ABV01@@Z12 0043a004     main.obj
 0002:0000c0e0       __CT??_R0?AVlogic_error@std@@@8??0logic_error@std@@QAE@ABV01@@Z12 0043a0e0     libcpmtd:xthrow.obj
 0002:0000c0fc       __TI3?AVlength_error@std@@ 0043a0fc     libcpmtd:xthrow.obj
 0002:0000c10c       __CTA3?AVlength_error@std@@ 0043a10c     libcpmtd:xthrow.obj
 0002:0000c11c       __CT??_R0?AVlength_error@std@@@8??0length_error@std@@QAE@ABV01@@Z12 0043a11c     libcpmtd:xthrow.obj
 0002:0000c138       __TI3?AVout_of_range@std@@ 0043a138     libcpmtd:xthrow.obj
 0002:0000c148       __CTA3?AVout_of_range@std@@ 0043a148     libcpmtd:xthrow.obj
 0002:0000c158       __CT??_R0?AVout_of_range@std@@@8??0out_of_range@std@@QAE@ABV01@@Z12 0043a158     libcpmtd:xthrow.obj
 0002:0000c73c       __TI2?AVbad_exception@std@@ 0043a73c     LIBCMTD:frame.obj
 0002:0000c74c       __CTA2?AVbad_exception@std@@ 0043a74c     LIBCMTD:frame.obj
 0002:0000c758       __CT??_R0?AVbad_exception@std@@@8??0bad_exception@std@@QAE@ABV01@@Z12 0043a758     LIBCMTD:frame.obj
 0002:0000ca84       __IMPORT_DESCRIPTOR_SDL2   0043aa84     SDL2:SDL2.dll
 0002:0000ca98       __IMPORT_DESCRIPTOR_SDL2_image 0043aa98     SDL2_image:SDL2_image.dll
 0002:0000caac       __IMPORT_DESCRIPTOR_SDL2_mixer 0043aaac     SDL2_mixer:SDL2_mixer.dll
 0002:0000cac0       __IMPORT_DESCRIPTOR_KERNEL32 0043aac0     kernel32:KERNEL32.dll
 0002:0000cad4       __NULL_IMPORT_DESCRIPTOR   0043aad4     SDL2:SDL2.dll
 0003:00000000       ?running@@3_NA             0043c000     main.obj
 0003:00000004       ?gamestate@@3HA            0043c004     main.obj
 0003:00000008       ?r@@3URegion@@A            0043c008     main.obj
 0003:00000018       ?r2@@3URegion@@A           0043c018     main.obj
 0003:00000028       ?r3@@3URegion@@A           0043c028     main.obj
 0003:00000038       ?r4@@3URegion@@A           0043c038     main.obj
 0003:00000048       ?d1_open@@3URegion@@A      0043c048     main.obj
 0003:00000058       ?d2_open@@3URegion@@A      0043c058     main.obj
 0003:00000068       ?d3_open@@3URegion@@A      0043c068     main.obj
 0003:00000078       ?d4_open@@3URegion@@A      0043c078     main.obj
 0003:00000088       ?d1_close@@3URegion@@A     0043c088     main.obj
 0003:00000098       ?d2_close@@3URegion@@A     0043c098     main.obj
 0003:000000a8       ?d3_close@@3URegion@@A     0043c0a8     main.obj
 0003:000000b8       ?d4_close@@3URegion@@A     0043c0b8     main.obj
 0003:000000c8       ?secret1@@3URegion@@A      0043c0c8     main.obj
 0003:000000d8       ?img3_secret@@3URegion@@A  0043c0d8     main.obj
 0003:000000f0       ??_R0?AVfailure@ios_base@std@@@8 0043c0f0     main.obj
 0003:00000114       ??_R0?AVsystem_error@std@@@8 0043c114     main.obj
 0003:00000134       ??_R0?AVruntime_error@std@@@8 0043c134     main.obj
 0003:00000154       ??_R0?AVexception@std@@@8  0043c154     main.obj
 0003:00000170       ??_R0?AVbad_cast@std@@@8   0043c170     main.obj
 0003:0000018c       ??_R0?AVbad_alloc@std@@@8  0043c18c     main.obj
 0003:000001a8       ?_Sync@ios_base@std@@0_NA  0043c1a8     libcpmtd:ios.obj
 0003:000001b0       ??_R0?AVlogic_error@std@@@8 0043c1b0     libcpmtd:xthrow.obj
 0003:000001d0       ??_R0?AVlength_error@std@@@8 0043c1d0     libcpmtd:xthrow.obj
 0003:000001f0       ??_R0?AVout_of_range@std@@@8 0043c1f0     libcpmtd:xthrow.obj
 0003:00000210       ??_R0?AV_Locimp@locale@std@@@8 0043c210     libcpmtd:locale0.obj
 0003:00000234       ??_R0?AVfacet@locale@std@@@8 0043c234     libcpmtd:locale0.obj
 0003:00000254       ??_R0?AV_Generic_error_category@std@@@8 0043c254     libcpmtd:syserror.obj
 0003:00000280       ??_R0?AVerror_category@std@@@8 0043c280     libcpmtd:syserror.obj
 0003:000002a4       ??_R0?AV_Iostream_error_category@std@@@8 0043c2a4     libcpmtd:syserror.obj
 0003:000002d0       ??_R0?AV_System_error_category@std@@@8 0043c2d0     libcpmtd:syserror.obj
 0003:00000308       ?_PJP_CPP_Copyright@@3PADA 0043c308     libcpmtd:iosptrs.obj
 0003:00000364       ___security_cookie         0043c364     LIBCMTD:gs_cookie.obj
 0003:00000368       ___security_cookie_complement 0043c368     LIBCMTD:gs_cookie.obj
 0003:00000370       __iob                      0043c370     LIBCMTD:_file.obj
 0003:000005f0       ??_R0?AVtype_info@@@8      0043c5f0     LIBCMTD:typinfo.obj
 0003:0000060c       __crtDbgFlag               0043c60c     LIBCMTD:dbgheap.obj
 0003:00000610       ___crtDebugFillThreshold   0043c610     LIBCMTD:dbgheap.obj
 0003:00000618       __crtBreakAlloc            0043c618     LIBCMTD:dbgheap.obj
 0003:0000067c       ___app_type                0043c67c     LIBCMTD:crt0.obj
 0003:00000690       __pctype                   0043c690     LIBCMTD:ctype.obj
 0003:00000694       __pwctype                  0043c694     LIBCMTD:ctype.obj
 0003:00000698       ___abort_behavior          0043c698     LIBCMTD:abort.obj
 0003:0000069c       ___nullstring              0043c69c     LIBCMTD:output.obj
 0003:000006a0       ___wnullstring             0043c6a0     LIBCMTD:output.obj
 0003:00000818       __cfltcvt_tab              0043c818     LIBCMTD:cmiscdat.obj
 0003:00000840       ___initialmbcinfo          0043c840     LIBCMTD:mbctype.obj
 0003:00000a60       __mbctype                  0043ca60     LIBCMTD:mbctype.obj
 0003:00000b68       __mbcasemap                0043cb68     LIBCMTD:mbctype.obj
 0003:00000c68       ___ptmbcinfo               0043cc68     LIBCMTD:mbctype.obj
 0003:00000d60       ___flsindex                0043cd60     LIBCMTD:tidtable.obj
 0003:00000d64       ___getvalueindex           0043cd64     LIBCMTD:tidtable.obj
 0003:00000e88       ??_R0?AVbad_exception@std@@@8 0043ce88     LIBCMTD:frame.obj
 0003:00000eb0       ___badioinfo               0043ceb0     LIBCMTD:ioinit.obj
 0003:00000ef0       __pfnAllocHook             0043cef0     LIBCMTD:dbghook.obj
 0003:00000ef4       __crtAssertBusy            0043cef4     LIBCMTD:dbgrptt.obj
 0003:00000ef8       __CrtDbgMode               0043cef8     LIBCMTD:dbgrptt.obj
 0003:00000f04       __CrtDbgFile               0043cf04     LIBCMTD:dbgrptt.obj
 0003:00000f14       ___globallocalestatus      0043cf14     LIBCMTD:glstatus.obj
 0003:00000f18       ___clocalestr              0043cf18     LIBCMTD:nlsdata2.obj
 0003:00000f20       ___lc_time_c               0043cf20     LIBCMTD:nlsdata2.obj
 0003:00001088       ___initiallocinfo          0043d088     LIBCMTD:nlsdata2.obj
 0003:00001160       ___ptlocinfo               0043d160     LIBCMTD:nlsdata2.obj
 0003:00001164       ___initiallocalestructinfo 0043d164     LIBCMTD:nlsdata2.obj
 0003:0000116c       ___mb_cur_max              0043d16c     LIBCMTD:nlsdata1.obj
 0003:00001170       ___decimal_point           0043d170     LIBCMTD:nlsdata1.obj
 0003:00001174       ___decimal_point_length    0043d174     LIBCMTD:nlsdata1.obj
 0003:00001178       ___lconv_static_decimal    0043d178     LIBCMTD:lconv.obj
 0003:0000117c       ___lconv_static_W_decimal  0043d17c     LIBCMTD:lconv.obj
 0003:00001180       ___lconv_c                 0043d180     LIBCMTD:lconv.obj
 0003:000011d0       ___lconv                   0043d1d0     LIBCMTD:lconv.obj
 0003:000011e0       __sys_errlist              0043d1e0     LIBCMTD:syserr.obj
 0003:00001290       __sys_nerr                 0043d290     LIBCMTD:syserr.obj
 0003:000012a0       __NLG_Destination          0043d2a0     LIBCMTD:exsup.obj
 0003:000012b0       __lookuptrailbytes         0043d2b0     LIBCMTD:read.obj
 0003:000013b0       __confh                    0043d3b0     LIBCMTD:initcon.obj
 0003:000013c0       ?solidRect@@3USDL_Rect@@A  0043d3c0     main.obj
 0003:000013d0       ?X@@3HA                    0043d3d0     main.obj
 0003:000013d4       ?Y@@3HA                    0043d3d4     main.obj
 0003:000013d8       ?spriteClips@@3PAUSDL_Rect@@A 0043d3d8     main.obj
 0003:00001418       ?e@@3TSDL_Event@@A         0043d418     main.obj
 0003:00001450       ?solidTexture@@3PAUSDL_Texture@@A 0043d450     main.obj
 0003:00001454       ?text@@3PAUSDL_Texture@@A  0043d454     main.obj
 0003:00001458       ?window@@3PAUSDL_Window@@A 0043d458     main.obj
 0003:0000145c       ?renderer@@3PAUSDL_Renderer@@A 0043d45c     main.obj
 0003:00001460       ?gFont@@3PAU_TTF_Font@@A   0043d460     main.obj
 0003:00001464       ?gshortmus@@3PAU_Mix_Music@@A 0043d464     main.obj
 0003:00001468       ?closedoor@@3PAUMix_Chunk@@A 0043d468     main.obj
 0003:0000146c       ?opendoor@@3PAUMix_Chunk@@A 0043d46c     main.obj
 0003:00001470       ?gMusic@@3PAU_Mix_Music@@A 0043d470     main.obj
 0003:00001474       ?gScratch@@3PAUMix_Chunk@@A 0043d474     main.obj
 0003:00001478       ?gHigh@@3PAUMix_Chunk@@A   0043d478     main.obj
 0003:0000147c       ?gMedium@@3PAUMix_Chunk@@A 0043d47c     main.obj
 0003:00001480       ?gLow@@3PAUMix_Chunk@@A    0043d480     main.obj
 0003:00001484       ?cursorActive@@3_NA        0043d484     main.obj
 0003:00001485       ?handisdown@@3_NA          0043d485     main.obj
 0003:00001486       ?door1open@@3_NA           0043d486     main.obj
 0003:00001487       ?door2open@@3_NA           0043d487     main.obj
 0003:00001488       ?frame@@3HA                0043d488     main.obj
 0003:00001494       ?door3open@@3_NA           0043d494     main.obj
 0003:00001495       ?door4open@@3_NA           0043d495     main.obj
 0003:00001496       ?door1enter@@3_NA          0043d496     main.obj
 0003:00001497       ?door2enter@@3_NA          0043d497     main.obj
 0003:00001498       ?door3enter@@3_NA          0043d498     main.obj
 0003:00001499       ?door4enter@@3_NA          0043d499     main.obj
 0003:0000149a       ?secret@@3_NA              0043d49a     main.obj
 0003:0000149c       ?handdown@@3VLTexture@@A   0043d49c     main.obj
 0003:000014a8       ?handup@@3VLTexture@@A     0043d4a8     main.obj
 0003:000014b4       ?keystate@@3PBEB           0043d4b4     main.obj
 0003:000014b8       ?image3@@3PAVLTexture@@A   0043d4b8     main.obj
 0003:0000153c       ?image4_1@@3VLTexture@@A   0043d53c     main.obj
 0003:00001548       ?image6_1@@3VLTexture@@A   0043d548     main.obj
 0003:00001554       ?image5_1@@3VLTexture@@A   0043d554     main.obj
 0003:00001560       ?cursor@@3VLTexture@@A     0043d560     main.obj
 0003:0000156c       ?image7_1@@3VLTexture@@A   0043d56c     main.obj
 0003:00001578       ?image9_1@@3VLTexture@@A   0043d578     main.obj
 0003:00001584       ?image8_1@@3VLTexture@@A   0043d584     main.obj
 0003:00001590       ?image1@@3PAVLTexture@@A   0043d590     main.obj
 0003:000015c0       ?image2_1@@3VLTexture@@A   0043d5c0     main.obj
 0003:000015cc       ?spriteSheetTexture@@3VLTexture@@A 0043d5cc     main.obj
 0003:000015d8       ?_Stinit@?1??_Init@?$basic_filebuf@DU?$char_traits@D@std@@@std@@IAEXPAU_iobuf@@W4_Initfl@23@@Z@4HA 0043d5d8     main.obj
 0003:000015dc       ?_Psave@?$_Facetptr@V?$ctype@D@std@@@std@@2PBVfacet@locale@2@B 0043d5dc     main.obj
 0003:000015e0       ?_Psave@?$_Facetptr@V?$codecvt@DDH@std@@@std@@2PBVfacet@locale@2@B 0043d5e0     main.obj
 0003:000015e4       ?id@?$codecvt@DDH@std@@2V0locale@2@A 0043d5e4     main.obj
 0003:000015e8       ?_Index@ios_base@std@@0HA  0043d5e8     libcpmtd:ios.obj
 0003:0000169c       ?_Clocptr@_Locimp@locale@std@@0PAV123@A 0043d69c     libcpmtd:locale0.obj
 0003:000016a0       ?_Id_cnt@id@locale@std@@0HA 0043d6a0     libcpmtd:locale0.obj
 0003:000016a4       ?id@?$ctype@D@std@@2V0locale@2@A 0043d6a4     libcpmtd:locale0.obj
 0003:000016a8       ?id@?$codecvt@GDH@std@@2V0locale@2@A 0043d6a8     libcpmtd:locale0.obj
 0003:000016ac       ?id@?$ctype@_W@std@@2V0locale@2@A 0043d6ac     libcpmtd:locale0.obj
 0003:000016b0       ?id@?$codecvt@_WDH@std@@2V0locale@2@A 0043d6b0     libcpmtd:locale0.obj
 0003:000016b8       ?id@?$ctype@G@std@@2V0locale@2@A 0043d6b8     libcpmtd:locale0.obj
 0003:000016dc       ?_Ptr_cin@std@@3PAV?$basic_istream@DU?$char_traits@D@std@@@1@A 0043d6dc     libcpmtd:iosptrs.obj
 0003:000016e0       ?_Ptr_cout@std@@3PAV?$basic_ostream@DU?$char_traits@D@std@@@1@A 0043d6e0     libcpmtd:iosptrs.obj
 0003:000016e4       ?_Ptr_cerr@std@@3PAV?$basic_ostream@DU?$char_traits@D@std@@@1@A 0043d6e4     libcpmtd:iosptrs.obj
 0003:000016e8       ?_Ptr_clog@std@@3PAV?$basic_ostream@DU?$char_traits@D@std@@@1@A 0043d6e8     libcpmtd:iosptrs.obj
 0003:000016ec       ?_Ptr_wcin@std@@3PAV?$basic_istream@_WU?$char_traits@_W@std@@@1@A 0043d6ec     libcpmtd:iosptrs.obj
 0003:000016f0       ?_Ptr_wcout@std@@3PAV?$basic_ostream@_WU?$char_traits@_W@std@@@1@A 0043d6f0     libcpmtd:iosptrs.obj
 0003:000016f4       ?_Ptr_wcerr@std@@3PAV?$basic_ostream@_WU?$char_traits@_W@std@@@1@A 0043d6f4     libcpmtd:iosptrs.obj
 0003:000016f8       ?_Ptr_wclog@std@@3PAV?$basic_ostream@_WU?$char_traits@_W@std@@@1@A 0043d6f8     libcpmtd:iosptrs.obj
 0003:0000172c       __umaskval                 0043d72c     LIBCMTD:crt0dat.obj
 0003:00001730       ___argc                    0043d730     LIBCMTD:crt0dat.obj
 0003:00001734       ___argv                    0043d734     LIBCMTD:crt0dat.obj
 0003:00001738       ___wargv                   0043d738     LIBCMTD:crt0dat.obj
 0003:0000173c       __environ                  0043d73c     LIBCMTD:crt0dat.obj
 0003:00001740       ___initenv                 0043d740     LIBCMTD:crt0dat.obj
 0003:00001744       __wenviron                 0043d744     LIBCMTD:crt0dat.obj
 0003:00001748       ___winitenv                0043d748     LIBCMTD:crt0dat.obj
 0003:0000174c       __pgmptr                   0043d74c     LIBCMTD:crt0dat.obj
 0003:00001750       __wpgmptr                  0043d750     LIBCMTD:crt0dat.obj
 0003:00001754       __exitflag                 0043d754     LIBCMTD:crt0dat.obj
 0003:00001758       __C_Termination_Done       0043d758     LIBCMTD:crt0dat.obj
 0003:0000175c       __C_Exit_Done              0043d75c     LIBCMTD:crt0dat.obj
 0003:00001764       __cflush                   0043d764     LIBCMTD:_file.obj
 0003:00001768       ___pInvalidArgHandler      0043d768     LIBCMTD:invarg.obj
 0003:00001780       ?_pfnDumpClient@@3P6AXPAXI@ZA 0043d780     LIBCMTD:dbgheap.obj
 0003:00001788       ___crtDebugCheckCount      0043d788     LIBCMTD:dbgheap.obj
 0003:000017a0       __aenvptr                  0043d7a0     LIBCMTD:crt0.obj
 0003:000017a4       __wenvptr                  0043d7a4     LIBCMTD:crt0.obj
 0003:000017a8       ___error_mode              0043d7a8     LIBCMTD:crt0.obj
 0003:000017ac       ___locale_changed          0043d7ac     LIBCMTD:setlocal.obj
 0003:000017b0       __stdbuf                   0043d7b0     LIBCMTD:_sftbuf.obj
 0003:0000210c       ___mbulinfo                0043e10c     LIBCMTD:mbctype.obj
 0003:00002118       ___mbcodepage              0043e118     LIBCMTD:mbctype.obj
 0003:0000211c       ___ismbcodepage            0043e11c     LIBCMTD:mbctype.obj
 0003:00002120       ___mblcid                  0043e120     LIBCMTD:mbctype.obj
 0003:00002124       _gpFlsAlloc                0043e124     LIBCMTD:tidtable.obj
 0003:00002128       _gpFlsGetValue             0043e128     LIBCMTD:tidtable.obj
 0003:0000212c       _gpFlsSetValue             0043e12c     LIBCMTD:tidtable.obj
 0003:00002130       _gpFlsFree                 0043e130     LIBCMTD:tidtable.obj
 0003:000022a0       ?__pInconsistency@@3P6AXXZA 0043e2a0     LIBCMTD:hooks.obj
 0003:000022bc       ___pPurecall               0043e2bc     LIBCMTD:inithelp.obj
 0003:000022c0       ?_pnhHeap@@3P6AHI@ZA       0043e2c0     LIBCMTD:handler.obj
 0003:000022e0       __newmode                  0043e2e0     LIBCMTD:_newmode.obj
 0003:000022e4       __crtheap                  0043e2e4     LIBCMTD:heapinit.obj
 0003:000023f0       ___lconv_static_null       0043e3f0     LIBCMTD:lconv.obj
 0003:000023f4       ___lconv_static_W_null     0043e3f4     LIBCMTD:lconv.obj
 0003:0000240c       ?pArgList@UnDecorator@@0PAVReplicator@@A 0043e40c     LIBCMTD:undname.obj
 0003:00002410       ?pZNameList@UnDecorator@@0PAVReplicator@@A 0043e410     LIBCMTD:undname.obj
 0003:00002414       ?pTemplateArgList@UnDecorator@@0PAVReplicator@@A 0043e414     LIBCMTD:undname.obj
 0003:00002418       ?gName@UnDecorator@@0PBDB  0043e418     LIBCMTD:undname.obj
 0003:0000241c       ?name@UnDecorator@@0PBDB   0043e41c     LIBCMTD:undname.obj
 0003:00002420       ?outputString@UnDecorator@@0PADA 0043e420     LIBCMTD:undname.obj
 0003:00002424       ?maxStringLength@UnDecorator@@0HA 0043e424     LIBCMTD:undname.obj
 0003:00002428       ?disableFlags@UnDecorator@@0KA 0043e428     LIBCMTD:undname.obj
 0003:0000242c       ?m_pGetParameter@UnDecorator@@0P6APADJ@ZA 0043e42c     LIBCMTD:undname.obj
 0003:00002430       ?fExplicitTemplateParams@UnDecorator@@0_NA 0043e430     LIBCMTD:undname.obj
 0003:00002431       ?fGetTemplateArgumentList@UnDecorator@@0_NA 0043e431     LIBCMTD:undname.obj
 0003:00002448       __pfnReportHook            0043e448     <common>
 0003:0000244c       __pReportHookListW         0043e44c     <common>
 0003:00002450       __pReportHookList          0043e450     <common>
 0003:00002454       __debugger_hook_dummy      0043e454     <common>
 0003:00002458       __nhandle                  0043e458     <common>
 0003:00002460       ___pioinfo                 0043e460     <common>
 0003:00002560       ___sse2_available          0043e560     <common>
 0003:00002564       __acmdln                   0043e564     <common>
 0003:00002568       __NoHeapEnableTerminationOnCorruption 0043e568     <common>
 0003:0000256c       ___piob                    0043e56c     <common>
 0003:00002580       __bufin                    0043e580     <common>
 0003:00003580       __nstream                  0043f580     <common>
 0003:00003584       ___env_initialized         0043f584     <common>
 0003:00003588       ___onexitend               0043f588     <common>
 0003:0000358c       ___onexitbegin             0043f58c     <common>
 0003:00003590       ___mbctype_initialized     0043f590     <common>
 0003:00003594       __FPinit                   0043f594     <common>
 0003:00003598       ___dyn_tls_init_callback   0043f598     <common>

 entry point at        0001:0000f6d0

 Static symbols

 0001:00005193       __catch$?_Copy@?$basic_string@DU?$char_traits@D@std@@V?$allocator@D@2@@std@@QAEXII@Z$0 00406193 f i main.obj
 0001:000051bd       __catch$?_Copy@?$basic_string@DU?$char_traits@D@std@@V?$allocator@D@2@@std@@QAEXII@Z$1 004061bd f i main.obj
 0001:00007670       _tidy_global               00408670 f   libcpmtd:locale0.obj
 0001:00007c30       ?_Fac_tidy@@YAXXZ          00408c30 f   libcpmtd:locale0.obj
 0001:000089e0       _doexit                    004099e0 f   LIBCMTD:crt0dat.obj
 0001:00008cd0       __initterm                 00409cd0 f   LIBCMTD:crt0dat.obj
 0001:00008ea0       ?CatchGuardHandler@@YA?AW4_EXCEPTION_DISPOSITION@@PAUEHExceptionRecord@@PAUCatchGuardRN@@PAX2@Z 00409ea0 f   LIBCMTD:_trnsctrl_.obj
 0001:00008fe0       ?TranslatorGuardHandler@@YA?AW4_EXCEPTION_DISPOSITION@@PAUEHExceptionRecord@@PAUTranslatorGuardRN@@PAX2@Z 00409fe0 f   LIBCMTD:_trnsctrl_.obj
 0001:0000b0a0       _flsall                    0040c0a0 f   LIBCMTD:fflush.obj
 0001:0000c3c0       __nh_malloc_dbg_impl       0040d3c0 f   LIBCMTD:dbgheap.obj
 0001:0000c440       __heap_alloc_dbg_impl      0040d440 f   LIBCMTD:dbgheap.obj
 0001:0000c980       _realloc_help              0040d980 f   LIBCMTD:dbgheap.obj
 0001:0000d6d0       _CheckBytes                0040e6d0 f   LIBCMTD:dbgheap.obj
 0001:0000e0a0       ?_CrtMemDumpAllObjectsSince_stat@@YAXPBU_CrtMemState@@PAUlocaleinfo_struct@@@Z 0040f0a0 f   LIBCMTD:dbgheap.obj
 0001:0000e3b0       __printMemBlockData        0040f3b0 f   LIBCMTD:dbgheap.obj
 0001:0000e700       __onexit_nolock            0040f700 f   LIBCMTD:onexit.obj
 0001:0000ead0       ?ArrayUnwindFilter@@YAHPAU_EXCEPTION_POINTERS@@@Z 0040fad0 f   LIBCMTD:ehvecdtr.obj
 0001:0000f690       _swprintf                  00410690 f   LIBCMTD:wassert.obj
 0001:0000f6f0       ___tmainCRTStartup         004106f0 f   LIBCMTD:crt0.obj
 0001:0000f890       _fast_error_exit           00410890 f   LIBCMTD:crt0.obj
 0001:0000f8c0       _check_managed_app         004108c0 f   LIBCMTD:crt0.obj
 0001:0000f9d0       __copytlocinfo_nolock      004109d0 f   LIBCMTD:setlocal.obj
 0001:0000fc80       _sync_legacy_variables_lk  00410c80 f   LIBCMTD:setlocal.obj
 0001:0000fcc0       __setlocale_nolock         00410cc0 f   LIBCMTD:setlocal.obj
 0001:000100b0       __setlocale_set_cat        004110b0 f   LIBCMTD:setlocal.obj
 0001:000105e0       __setlocale_get_all        004115e0 f   LIBCMTD:setlocal.obj
 0001:000110d0       ?__crtLCMapStringA_stat@@YAHPAUlocaleinfo_struct@@KKPBDHPADHHH@Z 004120d0 f   LIBCMTD:a_map.obj
 0001:00011400       ?strncnt@@YAHPBDH@Z        00412400 f   LIBCMTD:a_map.obj
 0001:00013190       _write_char                00414190 f   LIBCMTD:output.obj
 0001:00013190       _write_char                00414190 f   LIBCMTD:output.obj
 0001:00013240       _write_multi_char          00414240 f   LIBCMTD:output.obj
 0001:00013240       _write_multi_char          00414240 f   LIBCMTD:output.obj
 0001:000135b0       _ValidateLocalCookies      004145b0 f   LIBCMTD:chandler4.obj
 0001:00014160       ?getSystemCP@@YAHH@Z       00415160 f   LIBCMTD:mbctype.obj
 0001:000145c0       ?CPtoLCID@@YAHH@Z          004155c0 f   LIBCMTD:mbctype.obj
 0001:00014640       ?setSBCS@@YAXPAUthreadmbcinfostruct@@@Z 00415640 f   LIBCMTD:mbctype.obj
 0001:00014720       ?setSBUpLow@@YAXPAUthreadmbcinfostruct@@@Z 00415720 f   LIBCMTD:mbctype.obj
 0001:00015930       _siglookup                 00416930 f   LIBCMTD:winsig.obj
 0001:00015e60       ?FindHandler@@YAXPAUEHExceptionRecord@@PAUEHRegistrationNode@@PAU_CONTEXT@@PAXPBU_s_FuncInfo@@EH1@Z 00416e60 f   LIBCMTD:frame.obj
 0001:000163b0       ?FindHandlerForForeignException@@YAXPAUEHExceptionRecord@@PAUEHRegistrationNode@@PAU_CONTEXT@@PAXPBU_s_FuncInfo@@HH1@Z 004173b0 f   LIBCMTD:frame.obj
 0001:000167f0       ?CatchIt@@YAXPAUEHExceptionRecord@@PAUEHRegistrationNode@@PAU_CONTEXT@@PAXPBU_s_FuncInfo@@PBU_s_HandlerType@@PBU_s_CatchableType@@PBU_s_TryBlockMapEntry@@H1E@Z 004177f0 f   LIBCMTD:frame.obj
 0001:000168b0       ?CallCatchBlock@@YAPAXPAUEHExceptionRecord@@PAUEHRegistrationNode@@PAU_CONTEXT@@PBU_s_FuncInfo@@PAXHK@Z 004178b0 f   LIBCMTD:frame.obj
 0001:00016b40       ?ExFilterRethrow@@YAHPAU_EXCEPTION_POINTERS@@@Z 00417b40 f   LIBCMTD:frame.obj
 0001:00017030       ?IsInExceptionSpec@@YAEPAUEHExceptionRecord@@PBU_s_ESTypeList@@@Z 00418030 f   LIBCMTD:frame.obj
 0001:000170f0       ?CallUnexpected@@YAXPBU_s_ESTypeList@@@Z 004180f0 f   LIBCMTD:frame.obj
 0001:0001713e       __catch$?CallUnexpected@@YAXPBU_s_ESTypeList@@@Z$0 0041813e f   LIBCMTD:frame.obj
 0001:00017180       ?Is_bad_exception_allowed@@YAEPBU_s_ESTypeList@@@Z 00418180 f   LIBCMTD:frame.obj
 0001:0001bec0       __is_LFH_enabled           0041cec0 f   LIBCMTD:expand.obj
 0001:0001ca30       _xtow_s@20                 0041da30 f   LIBCMTD:xtows.obj
 0001:0001e6a0       _xcptlookup                0041f6a0 f   LIBCMTD:winxfltr.obj
 0001:0001e9d0       _parse_cmdline             0041f9d0 f   LIBCMTD:stdargv.obj
 0001:0001ef20       __get_lc_time              0041ff20 f   LIBCMTD:inittime.obj
 0001:00020b20       _fix_grouping              00421b20 f   LIBCMTD:initmon.obj
 0001:00020b20       _fix_grouping              00421b20 f   LIBCMTD:initmon.obj
 0001:00021510       _cmpBYTE                   00422510 f   LIBCMTD:memcmp.obj
 0001:00021540       _cmpResult                 00422540 f   LIBCMTD:memcmp.obj
 0001:00021560       _unaligned_memcmp          00422560 f   LIBCMTD:memcmp.obj
 0001:00021c70       _cmpWORD                   00422c70 f   LIBCMTD:memcmp.obj
 0001:00021cf0       _cmpDWORD                  00422cf0 f   LIBCMTD:memcmp.obj
 0001:00021e20       ?__crtGetStringTypeA_stat@@YAHPAUlocaleinfo_struct@@KPBDHPAGHHH@Z 00422e20 f   LIBCMTD:a_str.obj
 0001:000225c0       _TranslateName             004235c0 f   LIBCMTD:getqloc.obj
 0001:00022650       _GetLcidFromLangCountry    00423650 f   LIBCMTD:getqloc.obj
 0001:00022710       _LangCountryEnumProc@4     00423710 f   LIBCMTD:getqloc.obj
 0001:00022b50       _GetLcidFromLanguage       00423b50 f   LIBCMTD:getqloc.obj
 0001:00022bd0       _LanguageEnumProc@4        00423bd0 f   LIBCMTD:getqloc.obj
 0001:00022d70       _GetLcidFromCountry        00423d70 f   LIBCMTD:getqloc.obj
 0001:00022dc0       _CountryEnumProc@4         00423dc0 f   LIBCMTD:getqloc.obj
 0001:00022ec0       _GetLcidFromDefault        00423ec0 f   LIBCMTD:getqloc.obj
 0001:00022f00       _ProcessCodePage           00423f00 f   LIBCMTD:getqloc.obj
 0001:00022fb0       _TestDefaultCountry        00423fb0 f   LIBCMTD:getqloc.obj
 0001:00023000       _TestDefaultLanguage       00424000 f   LIBCMTD:getqloc.obj
 0001:00023080       _LcidFromHexString         00424080 f   LIBCMTD:getqloc.obj
 0001:00023100       _GetPrimaryLen             00424100 f   LIBCMTD:getqloc.obj
 0001:00023770       __unwind_handler4          00424770 f   LIBCMTD:exsup4.obj
 0001:00024c50       _write_string              00425c50 f   LIBCMTD:outputs.obj
 0001:00024c50       _write_string              00425c50 f   LIBCMTD:outputs.obj
 0001:00024d80       ?__crtGetLocaleInfoA_stat@@YAHPAUlocaleinfo_struct@@KKPADH@Z 00425d80 f   LIBCMTD:a_loc.obj
 0001:00024ee0       __unwind_handler           00425ee0 f   LIBCMTD:exsup.obj
 0001:00027790       _xtoa_s@20                 00428790 f   LIBCMTD:xtoas.obj
 0001:00027fe0       ?wcsncnt@@YAIPB_WI@Z       00428fe0 f   LIBCMTD:wcstombs.obj
 0001:00029440       _write_char                0042a440 f   LIBCMTD:woutput.obj
 0001:00029440       _write_char                0042a440 f   LIBCMTD:woutput.obj
 0001:000294a0       _write_multi_char          0042a4a0 f   LIBCMTD:woutput.obj
 0001:000294a0       _write_multi_char          0042a4a0 f   LIBCMTD:woutput.obj
 0001:0002a900       _write_string              0042b900 f   LIBCMTD:woutputs.obj
 0001:0002a900       _write_string              0042b900 f   LIBCMTD:woutputs.obj
 0001:0002a9e0       ?x_ismbbtype_l@@YAHPAUlocaleinfo_struct@@IHH@Z 0042b9e0 f   LIBCMTD:ismbbyte.obj
 0001:0002b230       ?strtoxl@@YAKPAUlocaleinfo_struct@@PBDPAPBDHH@Z 0042c230 f   LIBCMTD:strtol.obj
 0001:0002bff0       __unwindfunclet$_main$0    0042cff0 f   main.obj
 0001:0002bffb       __unwindfunclet$_main$1    0042cffb f   main.obj
 0001:0002c006       __ehhandler$_main          0042d006 f   main.obj
 0001:0002c030       __unwindfunclet$??0?$basic_ofstream@DU?$char_traits@D@std@@@std@@QAE@XZ$0 0042d030 f   main.obj
 0001:0002c04c       __unwindfunclet$??0?$basic_ofstream@DU?$char_traits@D@std@@@std@@QAE@XZ$1 0042d04c f   main.obj
 0001:0002c057       __ehhandler$??0?$basic_ofstream@DU?$char_traits@D@std@@@std@@QAE@XZ 0042d057 f   main.obj
 0001:0002c080       __unwindfunclet$??1?$basic_ofstream@DU?$char_traits@D@std@@@std@@UAE@XZ$0 0042d080 f   main.obj
 0001:0002c08b       __ehhandler$??1?$basic_ofstream@DU?$char_traits@D@std@@@std@@UAE@XZ 0042d08b f   main.obj
 0001:0002c0b0       __unwindfunclet$??1?$basic_streambuf@DU?$char_traits@D@std@@@std@@UAE@XZ$0 0042d0b0 f   main.obj
 0001:0002c0bb       __ehhandler$??1?$basic_streambuf@DU?$char_traits@D@std@@@std@@UAE@XZ 0042d0bb f   main.obj
 0001:0002c0e0       __unwindfunclet$?overflow@?$basic_filebuf@DU?$char_traits@D@std@@@std@@MAEHH@Z$0 0042d0e0 f   main.obj
 0001:0002c0e8       __unwindfunclet$?overflow@?$basic_filebuf@DU?$char_traits@D@std@@@std@@MAEHH@Z$1 0042d0e8 f   main.obj
 0001:0002c0f0       __unwindfunclet$?overflow@?$basic_filebuf@DU?$char_traits@D@std@@@std@@MAEHH@Z$2 0042d0f0 f   main.obj
 0001:0002c0f8       __unwindfunclet$?overflow@?$basic_filebuf@DU?$char_traits@D@std@@@std@@MAEHH@Z$3 0042d0f8 f   main.obj
 0001:0002c100       __unwindfunclet$?overflow@?$basic_filebuf@DU?$char_traits@D@std@@@std@@MAEHH@Z$4 0042d100 f   main.obj
 0001:0002c11f       __ehhandler$?overflow@?$basic_filebuf@DU?$char_traits@D@std@@@std@@MAEHH@Z 0042d11f f   main.obj
 0001:0002c150       __unwindfunclet$??1?$basic_string@DU?$char_traits@D@std@@V?$allocator@D@2@@std@@QAE@XZ$0 0042d150 f   main.obj
 0001:0002c158       __ehhandler$??1?$basic_string@DU?$char_traits@D@std@@V?$allocator@D@2@@std@@QAE@XZ 0042d158 f   main.obj
 0001:0002c180       __unwindfunclet$?uflow@?$basic_filebuf@DU?$char_traits@D@std@@@std@@MAEHXZ$0 0042d180 f   main.obj
 0001:0002c188       __unwindfunclet$?uflow@?$basic_filebuf@DU?$char_traits@D@std@@@std@@MAEHXZ$1 0042d188 f   main.obj
 0001:0002c190       __unwindfunclet$?uflow@?$basic_filebuf@DU?$char_traits@D@std@@@std@@MAEHXZ$2 0042d190 f   main.obj
 0001:0002c198       __unwindfunclet$?uflow@?$basic_filebuf@DU?$char_traits@D@std@@@std@@MAEHXZ$3 0042d198 f   main.obj
 0001:0002c1a0       __unwindfunclet$?uflow@?$basic_filebuf@DU?$char_traits@D@std@@@std@@MAEHXZ$4 0042d1a0 f   main.obj
 0001:0002c1ab       __unwindfunclet$?uflow@?$basic_filebuf@DU?$char_traits@D@std@@@std@@MAEHXZ$5 0042d1ab f   main.obj
 0001:0002c1b6       __ehhandler$?uflow@?$basic_filebuf@DU?$char_traits@D@std@@@std@@MAEHXZ 0042d1b6 f   main.obj
 0001:0002c1e0       __unwindfunclet$??0?$basic_string@DU?$char_traits@D@std@@V?$allocator@D@2@@std@@QAE@ID@Z$0 0042d1e0 f   main.obj
 0001:0002c1e0       __unwindfunclet$??0?$basic_string@DU?$char_traits@D@std@@V?$allocator@D@2@@std@@QAE@PBD@Z$0 0042d1e0 f   main.obj
 0001:0002c1e0       __unwindfunclet$??0?$basic_string@DU?$char_traits@D@std@@V?$allocator@D@2@@std@@QAE@XZ$0 0042d1e0 f   main.obj
 0001:0002c1e8       __ehhandler$??0?$basic_string@DU?$char_traits@D@std@@V?$allocator@D@2@@std@@QAE@PBD@Z 0042d1e8 f   main.obj
 0001:0002c1e8       __ehhandler$??0?$basic_string@DU?$char_traits@D@std@@V?$allocator@D@2@@std@@QAE@XZ 0042d1e8 f   main.obj
 0001:0002c1e8       __ehhandler$??0?$basic_string@DU?$char_traits@D@std@@V?$allocator@D@2@@std@@QAE@ID@Z 0042d1e8 f   main.obj
 0001:0002c210       __unwindfunclet$??0?$_String_val@DV?$allocator@D@std@@@std@@QAE@V?$allocator@D@1@@Z$0 0042d210 f   main.obj
 0001:0002c218       __ehhandler$??0?$_String_val@DV?$allocator@D@std@@@std@@QAE@V?$allocator@D@1@@Z 0042d218 f   main.obj
 0001:0002c240       __unwindfunclet$??1?$_String_val@DV?$allocator@D@std@@@std@@QAE@XZ$0 0042d240 f   main.obj
 0001:0002c248       __ehhandler$??1?$_String_val@DV?$allocator@D@std@@@std@@QAE@XZ 0042d248 f   main.obj
 0001:0002c270       __unwindfunclet$??0?$basic_ostream@DU?$char_traits@D@std@@@std@@QAE@PAV?$basic_streambuf@DU?$char_traits@D@std@@@1@_N@Z$0 0042d270 f   main.obj
 0001:0002c28c       __ehhandler$??0?$basic_ostream@DU?$char_traits@D@std@@@std@@QAE@PAV?$basic_streambuf@DU?$char_traits@D@std@@@1@_N@Z 0042d28c f   main.obj
 0001:0002c2b0       __unwindfunclet$??0?$basic_filebuf@DU?$char_traits@D@std@@@std@@QAE@PAU_iobuf@@@Z$0 0042d2b0 f   main.obj
 0001:0002c2b0       __unwindfunclet$??1?$basic_filebuf@DU?$char_traits@D@std@@@std@@UAE@XZ$0 0042d2b0 f   main.obj
 0001:0002c2b8       __ehhandler$??1?$basic_filebuf@DU?$char_traits@D@std@@@std@@UAE@XZ 0042d2b8 f   main.obj
 0001:0002c2b8       __ehhandler$??0?$basic_filebuf@DU?$char_traits@D@std@@@std@@QAE@PAU_iobuf@@@Z 0042d2b8 f   main.obj
 0001:0002c2e0       __unwindfunclet$?_Endwrite@?$basic_filebuf@DU?$char_traits@D@std@@@std@@IAE_NXZ$0 0042d2e0 f   main.obj
 0001:0002c2e8       __unwindfunclet$?_Endwrite@?$basic_filebuf@DU?$char_traits@D@std@@@std@@IAE_NXZ$1 0042d2e8 f   main.obj
 0001:0002c2f0       __unwindfunclet$?_Endwrite@?$basic_filebuf@DU?$char_traits@D@std@@@std@@IAE_NXZ$2 0042d2f0 f   main.obj
 0001:0002c2f8       __unwindfunclet$?_Endwrite@?$basic_filebuf@DU?$char_traits@D@std@@@std@@IAE_NXZ$3 0042d2f8 f   main.obj
 0001:0002c300       __unwindfunclet$?_Endwrite@?$basic_filebuf@DU?$char_traits@D@std@@@std@@IAE_NXZ$4 0042d300 f   main.obj
 0001:0002c31f       __ehhandler$?_Endwrite@?$basic_filebuf@DU?$char_traits@D@std@@@std@@IAE_NXZ 0042d31f f   main.obj
 0001:0002c350       __unwindfunclet$??0system_error@std@@QAE@Verror_code@1@PBD@Z$0 0042d350 f   main.obj
 0001:0002c358       __ehhandler$??0system_error@std@@QAE@Verror_code@1@PBD@Z 0042d358 f   main.obj
 0001:0002c380       __unwindfunclet$??0?$basic_streambuf@DU?$char_traits@D@std@@@std@@IAE@XZ$0 0042d380 f   main.obj
 0001:0002c38b       __ehhandler$??0?$basic_streambuf@DU?$char_traits@D@std@@@std@@IAE@XZ 0042d38b f   main.obj
 0001:0002c3b0       __ehhandler$?_Copy@?$basic_string@DU?$char_traits@D@std@@V?$allocator@D@2@@std@@QAEXII@Z 0042d3b0 f   main.obj
 0001:0002c3d0       __unwindfunclet$?widen@?$basic_ios@DU?$char_traits@D@std@@@std@@QBEDD@Z$0 0042d3d0 f   main.obj
 0001:0002c3d8       __ehhandler$?widen@?$basic_ios@DU?$char_traits@D@std@@@std@@QBEDD@Z 0042d3d8 f   main.obj
 0001:0002c400       __unwindfunclet$??0?$_String_const_iterator@DU?$char_traits@D@std@@V?$allocator@D@2@@std@@QAE@PBDPBU_Container_base12@1@@Z$0 0042d400 f   main.obj
 0001:0002c408       __ehhandler$??0?$_String_const_iterator@DU?$char_traits@D@std@@V?$allocator@D@2@@std@@QAE@PBDPBU_Container_base12@1@@Z 0042d408 f   main.obj
 0001:0002c430       __unwindfunclet$?_Adopt@_Iterator_base12@std@@QAEXPBU_Container_base12@2@@Z$0 0042d430 f   main.obj
 0001:0002c438       __ehhandler$?_Adopt@_Iterator_base12@std@@QAEXPBU_Container_base12@2@@Z 0042d438 f   main.obj
 0001:0002c460       __unwindfunclet$?_Getcat@?$ctype@D@std@@SAIPAPBVfacet@locale@2@PBV42@@Z$0 0042d460 f   main.obj
 0001:0002c47b       __unwindfunclet$?_Getcat@?$ctype@D@std@@SAIPAPBVfacet@locale@2@PBV42@@Z$1 0042d47b f   main.obj
 0001:0002c494       __ehhandler$?_Getcat@?$ctype@D@std@@SAIPAPBVfacet@locale@2@PBV42@@Z 0042d494 f   main.obj
 0001:0002c4b0       __unwindfunclet$??0_Locinfo@std@@QAE@PBD@Z$0 0042d4b0 f   main.obj
 0001:0002c4b8       __unwindfunclet$??0_Locinfo@std@@QAE@PBD@Z$1 0042d4b8 f   main.obj
 0001:0002c4c3       __unwindfunclet$??0_Locinfo@std@@QAE@PBD@Z$2 0042d4c3 f   main.obj
 0001:0002c4ce       __unwindfunclet$??0_Locinfo@std@@QAE@PBD@Z$3 0042d4ce f   main.obj
 0001:0002c4d9       __unwindfunclet$??0_Locinfo@std@@QAE@PBD@Z$4 0042d4d9 f   main.obj
 0001:0002c4e4       __ehhandler$??0_Locinfo@std@@QAE@PBD@Z 0042d4e4 f   main.obj
 0001:0002c500       __unwindfunclet$??1_Locinfo@std@@QAE@XZ$0 0042d500 f   main.obj
 0001:0002c508       __unwindfunclet$??1_Locinfo@std@@QAE@XZ$1 0042d508 f   main.obj
 0001:0002c513       __unwindfunclet$??1_Locinfo@std@@QAE@XZ$2 0042d513 f   main.obj
 0001:0002c51e       __unwindfunclet$??1_Locinfo@std@@QAE@XZ$3 0042d51e f   main.obj
 0001:0002c529       __unwindfunclet$??1_Locinfo@std@@QAE@XZ$4 0042d529 f   main.obj
 0001:0002c534       __ehhandler$??1_Locinfo@std@@QAE@XZ 0042d534 f   main.obj
 0001:0002c550       __unwindfunclet$??1?$ctype@D@std@@MAE@XZ$0 0042d550 f   main.obj
 0001:0002c550       __unwindfunclet$??0?$ctype@D@std@@QAE@ABV_Locinfo@1@I@Z$0 0042d550 f   main.obj
 0001:0002c558       __ehhandler$??1?$ctype@D@std@@MAE@XZ 0042d558 f   main.obj
 0001:0002c558       __ehhandler$??0?$ctype@D@std@@QAE@ABV_Locinfo@1@I@Z 0042d558 f   main.obj
 0001:0002c580       __unwindfunclet$??$use_facet@V?$codecvt@DDH@std@@@std@@YAABV?$codecvt@DDH@0@ABVlocale@0@@Z$0 0042d580 f   main.obj
 0001:0002c580       __unwindfunclet$??$use_facet@V?$ctype@D@std@@@std@@YAABV?$ctype@D@0@ABVlocale@0@@Z$0 0042d580 f   main.obj
 0001:0002c588       __ehhandler$??$use_facet@V?$codecvt@DDH@std@@@std@@YAABV?$codecvt@DDH@0@ABVlocale@0@@Z 0042d588 f   main.obj
 0001:0002c588       __ehhandler$??$use_facet@V?$ctype@D@std@@@std@@YAABV?$ctype@D@0@ABVlocale@0@@Z 0042d588 f   main.obj
 0001:0002c5b0       __unwindfunclet$?_Getcat@?$codecvt@DDH@std@@SAIPAPBVfacet@locale@2@PBV42@@Z$0 0042d5b0 f   main.obj
 0001:0002c5cb       __unwindfunclet$?_Getcat@?$codecvt@DDH@std@@SAIPAPBVfacet@locale@2@PBV42@@Z$1 0042d5cb f   main.obj
 0001:0002c5e4       __ehhandler$?_Getcat@?$codecvt@DDH@std@@SAIPAPBVfacet@locale@2@PBV42@@Z 0042d5e4 f   main.obj
 0001:0002c600       __unwindfunclet$?construct@?$allocator@U_Container_proxy@std@@@std@@QAEXPAU_Container_proxy@2@$$QAU32@@Z$0 0042d600 f   main.obj
 0001:0002c611       __ehhandler$?construct@?$allocator@U_Container_proxy@std@@@std@@QAEXPAU_Container_proxy@2@$$QAU32@@Z 0042d611 f   main.obj
 0001:0002c630       __unwindfunclet$??0?$codecvt@DDH@std@@QAE@ABV_Locinfo@1@I@Z$0 0042d630 f   main.obj
 0001:0002c638       __ehhandler$??0?$codecvt@DDH@std@@QAE@ABV_Locinfo@1@I@Z 0042d638 f   main.obj
 0001:0002c660       __unwindfunclet$?loadFromFile@LTexture@@QAE_NV?$basic_string@DU?$char_traits@D@std@@V?$allocator@D@2@@std@@@Z$0 0042d660 f   LTexture.obj
 0001:0002c668       __ehhandler$?loadFromFile@LTexture@@QAE_NV?$basic_string@DU?$char_traits@D@std@@V?$allocator@D@2@@std@@@Z 0042d668 f   LTexture.obj
 0001:0002c690       __unwindfunclet$?_Facet_Register@facet@locale@std@@CAXPAV123@@Z$0 0042d690 f   libcpmtd:locale0.obj
 0001:0002c6a8       __ehhandler$?_Facet_Register@facet@locale@std@@CAXPAV123@@Z 0042d6a8 f   libcpmtd:locale0.obj
 0001:0002c6d0       __unwindfunclet$??0_Locimp@locale@std@@AAE@_N@Z$0 0042d6d0 f   libcpmtd:locale0.obj
 0001:0002c6d8       __ehhandler$??0_Locimp@locale@std@@AAE@_N@Z 0042d6d8 f   libcpmtd:locale0.obj
 0001:0002c700       __unwindfunclet$??1_Locimp@locale@std@@MAE@XZ$0 0042d700 f   libcpmtd:locale0.obj
 0001:0002c708       __unwindfunclet$??1_Locimp@locale@std@@MAE@XZ$1 0042d708 f   libcpmtd:locale0.obj
 0001:0002c713       __ehhandler$??1_Locimp@locale@std@@MAE@XZ 0042d713 f   libcpmtd:locale0.obj
 0001:0002c730       __unwindfunclet$?_Init@locale@std@@CAPAV_Locimp@12@XZ$0 0042d730 f   libcpmtd:locale0.obj
 0001:0002c738       __unwindfunclet$?_Init@locale@std@@CAPAV_Locimp@12@XZ$1 0042d738 f   libcpmtd:locale0.obj
 0001:0002c753       __unwindfunclet$?_Init@locale@std@@CAPAV_Locimp@12@XZ$2 0042d753 f   libcpmtd:locale0.obj
 0001:0002c765       __ehhandler$?_Init@locale@std@@CAPAV_Locimp@12@XZ 0042d765 f   libcpmtd:locale0.obj
 0001:0002c780       __unwindfunclet$?_Fac_tidy@@YAXXZ$0 0042d780 f   libcpmtd:locale0.obj
 0001:0002c780       __unwindfunclet$??1_Iterator_base12@std@@QAE@XZ$0 0042d780 f   libcpmtd:locale0.obj
 0001:0002c780       __unwindfunclet$?_Locimp_dtor@_Locimp@locale@std@@CAXPAV123@@Z$0 0042d780 f   libcpmtd:locale0.obj
 0001:0002c788       __ehhandler$?_Locimp_dtor@_Locimp@locale@std@@CAXPAV123@@Z 0042d788 f   libcpmtd:locale0.obj
 0001:0002c788       __ehhandler$??1_Iterator_base12@std@@QAE@XZ 0042d788 f   libcpmtd:locale0.obj
 0001:0002c788       __ehhandler$?_Fac_tidy@@YAXXZ 0042d788 f   libcpmtd:locale0.obj
 0001:0002c7b0       __unwindfunclet$?getSystemCP@@YAHH@Z$0 0042d7b0 f   LIBCMTD:mbctype.obj
 0001:0002c7b8       __ehhandler$?getSystemCP@@YAHH@Z 0042d7b8 f   LIBCMTD:mbctype.obj
 0001:0002c7e0       __ehhandler$?CallUnexpected@@YAXPBU_s_ESTypeList@@@Z 0042d7e0 f   LIBCMTD:frame.obj
 0001:0002c800       __unwindfunclet$?x_ismbbtype_l@@YAHPAUlocaleinfo_struct@@IHH@Z$0 0042d800 f   LIBCMTD:ismbbyte.obj
 0001:0002c808       __ehhandler$?x_ismbbtype_l@@YAHPAUlocaleinfo_struct@@IHH@Z 0042d808 f   LIBCMTD:ismbbyte.obj
 0001:0002c830       __unwindfunclet$?strtoxl@@YAKPAUlocaleinfo_struct@@PBDPAPBDHH@Z$0 0042d830 f   LIBCMTD:strtol.obj
 0001:0002c838       __ehhandler$?strtoxl@@YAKPAUlocaleinfo_struct@@PBDPAPBDHH@Z 0042d838 f   LIBCMTD:strtol.obj
 0001:0002c860       ??__Ekeystate@@YAXXZ       0042d860 f   main.obj
 0001:0002c880       ??__Eimage1@@YAXXZ         0042d880 f   main.obj
 0001:0002c8b0       ??__Eimage2_1@@YAXXZ       0042d8b0 f   main.obj
 0001:0002c8d0       ??__Eimage3@@YAXXZ         0042d8d0 f   main.obj
 0001:0002c900       ??__Eimage4_1@@YAXXZ       0042d900 f   main.obj
 0001:0002c920       ??__Eimage5_1@@YAXXZ       0042d920 f   main.obj
 0001:0002c940       ??__Eimage6_1@@YAXXZ       0042d940 f   main.obj
 0001:0002c960       ??__Eimage7_1@@YAXXZ       0042d960 f   main.obj
 0001:0002c980       ??__Eimage8_1@@YAXXZ       0042d980 f   main.obj
 0001:0002c9a0       ??__Eimage9_1@@YAXXZ       0042d9a0 f   main.obj
 0001:0002c9c0       ??__Ecursor@@YAXXZ         0042d9c0 f   main.obj
 0001:0002c9e0       ??__Ehandup@@YAXXZ         0042d9e0 f   main.obj
 0001:0002ca00       ??__Ehanddown@@YAXXZ       0042da00 f   main.obj
 0001:0002ca20       ??__EspriteSheetTexture@@YAXXZ 0042da20 f   main.obj
 0001:0002ca40       ??__E?id@?$codecvt@DDH@std@@2V0locale@2@A@@YAXXZ 0042da40 f   main.obj
 0001:0002ca60       ??__Einitlocks@std@@YAXXZ  0042da60 f   libcpmtd:xlock.obj
 0001:0002ca80       ??__E_Fac_tidy_reg@std@@YAXXZ 0042da80 f   libcpmtd:locale0.obj
 0001:0002caa0       ??__Eclassic_locale@std@@YAXXZ 0042daa0 f   libcpmtd:locale0.obj
 0001:0002cac0       ??__E?id@?$ctype@D@std@@2V0locale@2@A@@YAXXZ 0042dac0 f   libcpmtd:locale0.obj
 0001:0002cae0       ??__E?id@?$ctype@_W@std@@2V0locale@2@A@@YAXXZ 0042dae0 f   libcpmtd:locale0.obj
 0001:0002cb00       ??__E?id@?$codecvt@_WDH@std@@2V0locale@2@A@@YAXXZ 0042db00 f   libcpmtd:locale0.obj
 0001:0002cb20       ??__E?id@?$ctype@G@std@@2V0locale@2@A@@YAXXZ 0042db20 f   libcpmtd:locale0.obj
 0001:0002cb40       ??__E?id@?$codecvt@GDH@std@@2V0locale@2@A@@YAXXZ 0042db40 f   libcpmtd:locale0.obj
 0001:0002cb60       ??__E_Generic_object@std@@YAXXZ 0042db60 f   libcpmtd:syserror.obj
 0001:0002cb80       ??__E_Iostream_object@std@@YAXXZ 0042db80 f   libcpmtd:syserror.obj
 0001:0002cba0       ??__E_System_object@std@@YAXXZ 0042dba0 f   libcpmtd:syserror.obj
 0001:0002cbc0       ??__Einitlocks@std@@YAXXZ  0042dbc0 f   libcpmtd:iosptrs.obj
 0001:0002cbe0       ??__Einit_atexit@@YAXXZ    0042dbe0 f   libcpmtd:iosptrs.obj
 0001:0002cc00       ??__Fimage1@@YAXXZ         0042dc00 f   main.obj
 0001:0002cc20       ??__Fimage2_1@@YAXXZ       0042dc20 f   main.obj
 0001:0002cc30       ??__Fimage3@@YAXXZ         0042dc30 f   main.obj
 0001:0002cc50       ??__Fimage4_1@@YAXXZ       0042dc50 f   main.obj
 0001:0002cc60       ??__Fimage5_1@@YAXXZ       0042dc60 f   main.obj
 0001:0002cc70       ??__Fimage6_1@@YAXXZ       0042dc70 f   main.obj
 0001:0002cc80       ??__Fimage7_1@@YAXXZ       0042dc80 f   main.obj
 0001:0002cc90       ??__Fimage8_1@@YAXXZ       0042dc90 f   main.obj
 0001:0002cca0       ??__Fimage9_1@@YAXXZ       0042dca0 f   main.obj
 0001:0002ccb0       ??__Fcursor@@YAXXZ         0042dcb0 f   main.obj
 0001:0002ccc0       ??__Fhandup@@YAXXZ         0042dcc0 f   main.obj
 0001:0002ccd0       ??__Fhanddown@@YAXXZ       0042dcd0 f   main.obj
 0001:0002cce0       ??__FspriteSheetTexture@@YAXXZ 0042dce0 f   main.obj
 0001:0002ccf0       ??__Finitlocks@std@@YAXXZ  0042dcf0 f   libcpmtd:xlock.obj
 0001:0002cd10       ??__Fnomem@?4???2@YAPAXIABU_DebugHeapTag_t@std@@PADH@Z@YAXXZ 0042dd10 f   libcpmtd:xdebug.obj
 0001:0002cd30       ??__F_Fac_tidy_reg@std@@YAXXZ 0042dd30 f   libcpmtd:locale0.obj
 0001:0002cd50       ??__Fclassic_locale@std@@YAXXZ 0042dd50 f   libcpmtd:locale0.obj
 0001:0002cd70       ??__F_Generic_object@std@@YAXXZ 0042dd70 f   libcpmtd:syserror.obj
 0001:0002cd90       ??__F_Iostream_object@std@@YAXXZ 0042dd90 f   libcpmtd:syserror.obj
 0001:0002cdb0       ??__F_System_object@std@@YAXXZ 0042ddb0 f   libcpmtd:syserror.obj
 0001:0002cdd0       ??__Finitlocks@std@@YAXXZ  0042ddd0 f   libcpmtd:iosptrs.obj
 0001:0002cdf0       ??__Finit_atexit@@YAXXZ    0042ddf0 f   libcpmtd:iosptrs.obj
 0001:0002ce10       ??__Fnomem@?5???2@YAPAXI@Z@YAXXZ 0042de10 f   LIBCMTD:new.obj
